ASxxxx Linker V03.00 + NoICE + sdld,  page 1.
Hexadecimal  [32-Bits]

Area                                    Addr        Size        Decimal Bytes (Attributes)
--------------------------------        ----        ----        ------- ----- ------------
.  .ABS.                            00000000    00000000 =           0. bytes (ABS,CON)

      Value  Global                              Global Defined In Module
      -----  --------------------------------   ------------------------
     00000000  .__.ABS.                           
     00000000  _rRAMG                             
     00000000  l__BASE                         
     00000000  l__BSS                          
     00000000  l__CABS                         
     00000000  l__CODE_0                       
     00000000  l__CRASH_HEADER                 
     00000000  l__CRASH_SCRATCH                
     00000000  l__DABS                         
     00000000  l__EHL_TRAMPOLINE               
     00000000  l__HEADER                       
     00000000  l__HEADER_LCD                   
     00000000  l__HEADER_SIO                   
     00000000  l__HEADER_TIMER                 
     00000000  l__HEAP                         
     00000000  l__HRAM                         
     00000000  l__LIT                          
     00000000  s__CABS                         
     00000000  s__CRASH_HEADER                 
     00000000  s__CRASH_HEADER0                
     00000000  s__CRASH_HEADER1                
     00000000  s__CRASH_SCRATCH                
     00000000  s__CRASH_SCRATCH2               
     00000000  s__DABS                         
     00000000  s__EHL_TRAMPOLINE               
     00000000  s__EHL_TRAMPOLINE0              
     00000000  s__HEADER                       
     00000000  s__HEADER0                      
     00000000  s__HEADER1                      
     00000000  s__HEADER10                     
     00000000  s__HEADER11                     
     00000000  s__HEADER2                      
     00000000  s__HEADER3                      
     00000000  s__HEADER4                      
     00000000  s__HEADER5                      
     00000000  s__HEADER6                      
     00000000  s__HEADER7                      
     00000000  s__HEADER8                      
     00000000  s__HEADER9                      
     00000000  s__HEADER_LCD                   
     00000000  s__HEADER_LCD0                  
     00000000  s__HEADER_SIO                   
     00000000  s__HEADER_SIO0                  
     00000000  s__HEADER_TIMER                 
     00000000  s__HEADER_TIMER0                
     00000000  s__HEADERa                      
     00000000  s__HEADERb                      
     00000000  s__HEADERc                      
     00000000  s__HEADERd                      
     00000000  s__HEADERe                      
ASxxxx Linker V03.00 + NoICE + sdld,  page 2.
Hexadecimal  [32-Bits]

Area                                    Addr        Size        Decimal Bytes (Attributes)
--------------------------------        ----        ----        ------- ----- ------------
.  .ABS.                            00000000    00000000 =           0. bytes (ABS,CON)

      Value  Global                              Global Defined In Module
      -----  --------------------------------   ------------------------
     00000000  s__HEADERf                      
     00000000  s__HRAM                         
     00000000  s__HRAM12                       
     00000001  ___bank_ACTOR                      actor
     00000001  ___bank_VM_PALETTE                 vm_palette
     00000001  ___bank_VM_SGB                     vm_sgb
     00000001  ___bank_scene_dev_room_init        scene_dev_room_init
     00000001  ___bank_sound_item_get_wav         sound_item_get_wav
     00000001  b_activate_actor                   actor
     00000001  b_activate_actors_in_col           actor
     00000001  b_activate_actors_in_row           actor
     00000001  b_actor_at_tile                    actor
     00000001  b_actor_get_frame_offset           actor
     00000001  b_actor_in_front_of_player         actor
     00000001  b_actor_overlapping_bb             actor
     00000001  b_actor_overlapping_player         actor
     00000001  b_actor_set_anim_idle              actor
     00000001  b_actor_set_anim_moving            actor
     00000001  b_actor_set_dir                    actor
     00000001  b_actor_set_frame_offset           actor
     00000001  b_actor_set_frames                 actor
     00000001  b_actors_handle_player_collision   actor
     00000001  b_actors_init                      actor
     00000001  b_check_collision_in_direction     actor
     00000001  b_deactivate_actor                 actor
     00000001  b_player_init                      actor
     00000001  b_ui_draw_frame                    ui
     00000001  b_ui_draw_text_buffer_char         ui
     00000001  b_ui_init                          ui
     00000001  b_ui_load_tiles                    ui
     00000001  b_ui_run_menu                      ui
     00000001  b_ui_run_modal                     ui
     00000001  b_ui_set_start_tile                ui
     00000001  b_vm_load_palette                  vm_palette
     00000001  l__GSFINAL                      
     00000001  l__HEADER0                      
     00000001  l__HEADER11                     
     00000001  l__HEADER9                      
     00000001  l__HEADERa                      
     00000001  l__HEADERb                      
     00000001  l__HEADERd                      
     00000001  l__HEADERe                      
     00000002  ___bank_bg_menus_newinvmenu_tile   bg_menus_newinvmenu_tilemap_
     00000002  ___bank_script_menu_start_button   script_menu_start_button_be
     00000002  ___bank_sound_pc_logon_wav         sound_pc_logon_wav
     00000002  l__HEADER5                      
     00000002  l__HEADERc                      
     00000002  l__HEADERf                      
     00000003  ___bank_SGB_border_chr             border
     00000003  ___bank_SGB_border_map             border
     00000003  ___bank_SGB_border_pal             border
ASxxxx Linker V03.00 + NoICE + sdld,  page 3.
Hexadecimal  [32-Bits]

Area                                    Addr        Size        Decimal Bytes (Attributes)
--------------------------------        ----        ----        ------- ----- ------------
.  .ABS.                            00000000    00000000 =           0. bytes (ABS,CON)

      Value  Global                              Global Defined In Module
      -----  --------------------------------   ------------------------
     00000003  ___bank_actor_interact_1_update    actor_interact_1_update
     00000003  ___bank_bg_barrens_docksgb_tilem   bg_barrens_docksgb_tilemap_a
     00000003  ___bank_bg_pictures_cg_door1_gb_   bg_pictures_cg_door1_gb_tile
     00000003  ___bank_scene_input_password_old   scene_input_password_old__sp
     00000003  ___bank_script_input_1             script_input_1
     00000003  l__HEADER8                      
     00000003  l__HEADER_LCD0                  
     00000003  l__HRAM12                       
     00000004  ___bank_VM_ACTOR                   vm_actor
     00000004  ___bank_actor_comments_0_interac   actor_comments_0_interact
     00000004  ___bank_bg_barrens_docksgb_tilem   bg_barrens_docksgb_tilemap
     00000004  ___bank_scene_docks_collisions     scene_docks_collisions
     00000004  ___bank_scene_gbc_start_dark_bat   scene_gbc_start_dark_bathro_
     00000004  ___bank_sound_pc_denied_wav        sound_pc_denied_wav
     00000004  ___mute_mask_sound_branch_snap_w   sound_branch_snap_wav
     00000004  ___mute_mask_sound_item_get_wav    sound_item_get_wav
     00000004  ___mute_mask_sound_pc_denied_wav   sound_pc_denied_wav
     00000004  ___mute_mask_sound_pc_logon_wav    sound_pc_logon_wav
     00000004  ___mute_mask_sound_pc_messagebox   sound_pc_messagebox_wav
     00000004  ___mute_mask_sound_pc_off_wav      sound_pc_off_wav
     00000004  ___mute_mask_sound_pc_on_wav       sound_pc_on_wav
     00000004  b_vm_actor_activate                vm_actor
     00000004  b_vm_actor_deactivate              vm_actor
     00000004  b_vm_actor_emote                   vm_actor
     00000004  b_vm_actor_get_angle               vm_actor
     00000004  b_vm_actor_get_anim_frame          vm_actor
     00000004  b_vm_actor_get_dir                 vm_actor
     00000004  b_vm_actor_get_pos                 vm_actor
     00000004  b_vm_actor_move_cancel             vm_actor
     00000004  b_vm_actor_move_to                 vm_actor
     00000004  b_vm_actor_replace_tile            vm_actor
     00000004  b_vm_actor_set_anim                vm_actor
     00000004  b_vm_actor_set_anim_frame          vm_actor
     00000004  b_vm_actor_set_anim_set            vm_actor
     00000004  b_vm_actor_set_anim_tick           vm_actor
     00000004  b_vm_actor_set_bounds              vm_actor
     00000004  b_vm_actor_set_dir                 vm_actor
     00000004  b_vm_actor_set_flags               vm_actor
     00000004  b_vm_actor_set_move_speed          vm_actor
     00000004  b_vm_actor_set_pos                 vm_actor
     00000004  b_vm_actor_set_spritesheet         vm_actor
     00000004  b_vm_actor_set_spritesheet_by_re   vm_actor
     00000004  b_vm_actor_terminate_update        vm_actor
     00000004  l__CRASH_HEADER1                
     00000004  l__HEADER_SIO0                  
     00000004  l__HEADER_TIMER0                
     00000005  ___bank_actor_16_interact          actor_16_interact
     00000005  ___bank_bg_louis_endscreen_tiles   bg_louis_endscreen_tileset
     00000005  ___bank_script_input_17            script_input_17
     00000005  ___bank_sound_pc_messagebox_wav    sound_pc_messagebox_wav
     00000005  b_platform_init                    platform
ASxxxx Linker V03.00 + NoICE + sdld,  page 4.
Hexadecimal  [32-Bits]

Area                                    Addr        Size        Decimal Bytes (Attributes)
--------------------------------        ----        ----        ------- ----- ------------
.  .ABS.                            00000000    00000000 =           0. bytes (ABS,CON)

      Value  Global                              Global Defined In Module
      -----  --------------------------------   ------------------------
     00000005  b_platform_update                  platform
     00000005  l__CRASH_HEADER0                
     00000005  l__HEADER1                      
     00000006  ___bank_VM_MAIN                    vm
     00000006  ___bank_actor_item_1_interact      actor_item_1_interact
     00000006  ___bank_bg_pictures_cg_wake2_gb_   bg_pictures_cg_wake2_gb_tile
     00000006  ___bank_bg_pictures_cg_wake2_gbc   bg_pictures_cg_wake2_gbc_til
     00000006  ___bank_bg_pictures_cg_wake4_gb_   bg_pictures_cg_wake4_gb_tile
     00000006  ___bank_scene_b6_gbc_actors        scene_b6_gbc_actors
     00000006  b_script_detach_hthread            vm
     00000006  b_script_execute                   vm
     00000006  b_script_runner_init               vm
     00000006  b_script_terminate                 vm
     00000006  b_vm_call                          vm
     00000006  b_vm_call_far                      vm
     00000006  b_vm_get_indirect                  vm
     00000006  b_vm_get_int16                     vm
     00000006  b_vm_get_int8                      vm
     00000006  b_vm_get_tlocal                    vm
     00000006  b_vm_get_uint8                     vm
     00000006  b_vm_idle                          vm
     00000006  b_vm_if                            vm
     00000006  b_vm_if_const                      vm
     00000006  b_vm_init_rng                      vm
     00000006  b_vm_invoke                        vm
     00000006  b_vm_join                          vm
     00000006  b_vm_jump                          vm
     00000006  b_vm_lock                          vm
     00000006  b_vm_loop                          vm
     00000006  b_vm_memcpy                        vm
     00000006  b_vm_memset                        vm
     00000006  b_vm_poll_loaded                   vm
     00000006  b_vm_pop                           vm
     00000006  b_vm_push                          vm
     00000006  b_vm_push_reference                vm
     00000006  b_vm_push_value                    vm
     00000006  b_vm_push_value_ind                vm
     00000006  b_vm_raise                         vm
     00000006  b_vm_rand                          vm
     00000006  b_vm_reserve                       vm
     00000006  b_vm_ret                           vm
     00000006  b_vm_ret_far                       vm
     00000006  b_vm_set                           vm
     00000006  b_vm_set_const                     vm
     00000006  b_vm_set_const_int16               vm
     00000006  b_vm_set_const_int8                vm
     00000006  b_vm_set_indirect                  vm
     00000006  b_vm_set_int16                     vm
     00000006  b_vm_set_int8                      vm
     00000006  b_vm_set_uint8                     vm
     00000006  b_vm_terminate                     vm
ASxxxx Linker V03.00 + NoICE + sdld,  page 5.
Hexadecimal  [32-Bits]

Area                                    Addr        Size        Decimal Bytes (Attributes)
--------------------------------        ----        ----        ------- ----- ------------
.  .ABS.                            00000000    00000000 =           0. bytes (ABS,CON)

      Value  Global                              Global Defined In Module
      -----  --------------------------------   ------------------------
     00000006  b_vm_test_terminate                vm
     00000006  b_vm_unlock                        vm
     00000006  b_wait_frames                      vm
     00000006  l__HEADER7                      
     00000007  ___bank_bg_barrens_docksgb_tiles   bg_barrens_docksgb_tileset
     00000007  ___bank_bg_pictures_cg_wake4_gbc   bg_pictures_cg_wake4_gbc_til
     00000007  ___bank_bg_pictures_cg_wake5_gb_   bg_pictures_cg_wake5_gb_tile
     00000007  ___bank_bg_pictures_cg_wake5_gbc   bg_pictures_cg_wake5_gbc_til
     00000007  ___bank_font_gbs_mono              font_gbs_mono
     00000007  ___bank_scene_input_password_2_0   scene_input_password_2_0_tri
     00000007  l__HEADER2                      
     00000008  ___bank_bg_normal_gbc_tileset      bg_normal_gbc_tileset
     00000008  ___bank_bg_pictures_cg_wake1_gb_   bg_pictures_cg_wake1_gb_tile
     00000008  ___bank_bg_pictures_cg_wake3_gb_   bg_pictures_cg_wake3_gb_tile
     00000008  ___bank_bg_pictures_cg_wake3_gbc   bg_pictures_cg_wake3_gbc_til
     00000008  ___bank_scene_dev_room_sprites     scene_dev_room_sprites
     00000008  ___mute_mask_sound_legacy_0        sound_legacy_0
     00000008  ___mute_mask_sound_legacy_1        sound_legacy_1
     00000008  ___mute_mask_sound_legacy_2        sound_legacy_2
     00000008  ___mute_mask_sound_legacy_3        sound_legacy_3
     00000008  b_do_load_palette                  data_manager
     00000008  b_load_background                  data_manager
     00000008  b_load_bkg_tileset                 data_manager
     00000008  b_load_bounds                      data_manager
     00000008  b_load_emote                       data_manager
     00000008  b_load_init                        data_manager
     00000008  b_load_player                      data_manager
     00000008  b_load_scene                       data_manager
     00000008  b_load_sprite                      data_manager
     00000008  l__HEADER3                      
     00000009  ___bank_actor_comments_1_interac   actor_comments_1_interact
     00000009  ___bank_bg_normal_gb_optimized_t   bg_normal_gb_optimized_tiles
     00000009  ___bank_bg_pictures_cg_desktop_n   bg_pictures_cg_desktop_no_e_
     00000009  ___bank_bg_pictures_cg_desktop_n   bg_pictures_cg_desktop_no_e_
     00000009  ___bank_bg_pictures_cg_wake1_gbc   bg_pictures_cg_wake1_gbc_til
     00000009  ___bank_bg_startinghome_startgb_   bg_startinghome_startgb_tile
     00000009  ___bank_scene_input_password_old   scene_input_password_old__in
     00000009  ___bank_sound_branch_snap_wav      sound_branch_snap_wav
     0000000A  ___bank_bg_pictures_cg_desktop_n   bg_pictures_cg_desktop_no_e_
     0000000A  ___bank_bg_pictures_cg_desktop_n   bg_pictures_cg_desktop_no_e_
     0000000A  ___bank_bg_pictures_cg_desktop_n   bg_pictures_cg_desktop_no_e_
     0000000A  ___bank_bg_pictures_cg_desktop_n   bg_pictures_cg_desktop_no_e_
     0000000A  ___bank_bg_startinghome_startgb_   bg_startinghome_startgb_tile
     0000000A  ___bank_scene_computer_cutscene_   scene_computer_cutscene_2_co
     0000000A  ___bank_scene_computer_cutscene_   scene_computer_cutscene_coll
     0000000A  ___bank_scene_item_screen_2_new_   scene_item_screen_2_new_trig
     0000000B  ___bank_bg_pictures_b0_2_gbc_til   bg_pictures_b0_2_gbc_tileset
     0000000B  ___bank_bg_pictures_b0_2_tileset   bg_pictures_b0_2_tileset
     0000000B  ___bank_bg_pictures_b5_gb_alt_ti   bg_pictures_b5_gb_alt_tilese
     0000000B  ___bank_bg_pictures_b5_gbc_alt_t   bg_pictures_b5_gbc_alt_tiles
     0000000B  ___bank_bg_pictures_b6_gb_alt_ti   bg_pictures_b6_gb_alt_tilese
ASxxxx Linker V03.00 + NoICE + sdld,  page 6.
Hexadecimal  [32-Bits]

Area                                    Addr        Size        Decimal Bytes (Attributes)
--------------------------------        ----        ----        ------- ----- ------------
.  .ABS.                            00000000    00000000 =           0. bytes (ABS,CON)

      Value  Global                              Global Defined In Module
      -----  --------------------------------   ------------------------
     0000000B  ___bank_bg_pictures_b6_gbc_alt_t   bg_pictures_b6_gbc_alt_tiles
     0000000B  ___bank_bg_pictures_b7_gbc_alt_t   bg_pictures_b7_gbc_alt_tiles
     0000000B  ___bank_script_input_13            script_input_13
     0000000B  b_fade_applypalettechange          fade_manager
     0000000B  b_fade_in                          fade_manager
     0000000B  b_fade_in_modal                    fade_manager
     0000000B  b_fade_init                        fade_manager
     0000000B  b_fade_out                         fade_manager
     0000000B  b_fade_out_modal                   fade_manager
     0000000B  b_fade_setspeed                    fade_manager
     0000000B  b_fade_update                      fade_manager
     0000000C  ___bank_actor_28_interact          actor_28_interact
     0000000C  ___bank_bg_new_folder_wip_baseme   bg_new_folder_wip_basement__
     0000000C  ___bank_bg_new_folder_wip_baseme   bg_new_folder_wip_basement__
     0000000C  ___bank_bg_pictures_b3_gb_alt_ti   bg_pictures_b3_gb_alt_tilese
     0000000C  ___bank_bg_pictures_b3_gbc_alt_t   bg_pictures_b3_gbc_alt_tiles
     0000000C  ___bank_bg_pictures_b4_gb_alt_ti   bg_pictures_b4_gb_alt_tilese
     0000000C  ___bank_bg_pictures_b4_gbc_alt_t   bg_pictures_b4_gbc_alt_tiles
     0000000C  ___bank_bg_pictures_b7_gb_alt_ti   bg_pictures_b7_gb_alt_tilese
     0000000C  ___bank_scene_basement_stairs_co   scene_basement_stairs_collis
     0000000D  ___bank_VM_UI                      vm_ui
     0000000D  ___bank_scene_basement_stairs_ol   scene_basement_stairs_old_co
     0000000D  ___bank_scene_basement_stairs_wi   scene_basement_stairs_with__
     0000000D  ___bank_scene_start_dark_bedroom   scene_start_dark_bedroom_col
     0000000D  ___bank_sound_pc_off_wav           sound_pc_off_wav
     0000000D  ___bank_sprite_actor               sprite_actor
     0000000D  b_adventure_init                   adventure
     0000000D  b_adventure_update                 adventure
     0000000D  b_scroll_init                      scroll
     0000000D  b_scroll_repaint                   scroll
     0000000D  b_scroll_reset                     scroll
     0000000D  b_scroll_update                    scroll
     0000000D  b_shmup_init                       shmup
     0000000D  b_shmup_update                     shmup
     0000000D  b_topdown_init                     topdown
     0000000D  b_topdown_update                   topdown
     0000000D  b_vm_choice                        vm_ui
     0000000D  b_vm_display_text                  vm_ui
     0000000D  b_vm_overlay_clear                 vm_ui
     0000000D  b_vm_overlay_move_to               vm_ui
     0000000D  b_vm_overlay_scroll                vm_ui
     0000000D  b_vm_overlay_set_map               vm_ui
     0000000D  b_vm_overlay_set_scroll            vm_ui
     0000000D  b_vm_overlay_set_submap            vm_ui
     0000000D  b_vm_overlay_set_submap_ex         vm_ui
     0000000D  b_vm_overlay_setpos                vm_ui
     0000000D  b_vm_overlay_show                  vm_ui
     0000000D  b_vm_overlay_wait                  vm_ui
     0000000D  b_vm_set_font                      vm_ui
     0000000D  b_vm_set_text_sound                vm_ui
     0000000D  b_vm_switch_text_layer             vm_ui
ASxxxx Linker V03.00 + NoICE + sdld,  page 7.
Hexadecimal  [32-Bits]

Area                                    Addr        Size        Decimal Bytes (Attributes)
--------------------------------        ----        ----        ------- ----- ------------
.  .ABS.                            00000000    00000000 =           0. bytes (ABS,CON)

      Value  Global                              Global Defined In Module
      -----  --------------------------------   ------------------------
     0000000E  ___bank_VM_GAMEBOY                 vm_gameboy
     0000000E  ___bank_actor_item_2_interact      actor_item_2_interact
     0000000E  ___bank_bg_menus_newinvmenu_tile   bg_menus_newinvmenu_tilemap
     0000000E  ___bank_bg_pictures_b8_gbc_alt_t   bg_pictures_b8_gbc_alt_tiles
     0000000E  ___bank_bg_startinghome_livingro   bg_startinghome_livingroomg_
     0000000E  ___bank_bg_startinghome_livingro   bg_startinghome_livingroomg_
     0000000E  ___bank_scene_b6_gbc_sprites       scene_b6_gbc_sprites
     0000000E  ___bank_scene_item_screen_2_new_   scene_item_screen_2_new_coll
     0000000E  ___bank_scene_start_dark_livingr   scene_start_dark_livingroom_
     0000000E  ___bank_scene_start_dark_livingr   scene_start_dark_livingroom_
     0000000E  ___bank_script_item_interactable   script_item_interactable_in
     0000000E  ___bank_sound_pc_on_wav            sound_pc_on_wav
     0000000E  b_vm_context_prepare               vm_gameboy
     0000000E  b_vm_fade                          vm_gameboy
     0000000E  b_vm_get_tile_xy                   vm_gameboy
     0000000E  b_vm_input_attach                  vm_gameboy
     0000000E  b_vm_input_detach                  vm_gameboy
     0000000E  b_vm_input_get                     vm_gameboy
     0000000E  b_vm_input_wait                    vm_gameboy
     0000000E  b_vm_load_tiles                    vm_gameboy
     0000000E  b_vm_load_tileset                  vm_gameboy
     0000000E  b_vm_poll                          vm_gameboy
     0000000E  b_vm_replace_tile                  vm_gameboy
     0000000E  b_vm_replace_tile_xy               vm_gameboy
     0000000E  b_vm_rumble                        vm_gameboy
     0000000E  b_vm_set_sprite_mode               vm_gameboy
     0000000E  b_vm_set_sprites_visible           vm_gameboy
     0000000E  b_vm_timer_prepare                 vm_gameboy
     0000000E  b_vm_timer_reset                   vm_gameboy
     0000000E  b_vm_timer_set                     vm_gameboy
     0000000E  b_vm_timer_stop                    vm_gameboy
     0000000F  ___bank_actor_item_3_interact      actor_item_3_interact
     0000000F  ___bank_actor_window_interact_in   actor_window_interact_intera
     0000000F  ___bank_bg_pictures_b0_2_gbc_til   bg_pictures_b0_2_gbc_tilemap
     0000000F  ___bank_bg_pictures_b0_2_gbc_til   bg_pictures_b0_2_gbc_tilemap
     0000000F  ___bank_bg_pictures_b0_2_tilemap   bg_pictures_b0_2_tilemap
     0000000F  ___bank_bg_pictures_b0_2_tilemap   bg_pictures_b0_2_tilemap_att
     0000000F  ___bank_bg_pictures_cg_door2_gb_   bg_pictures_cg_door2_gb_tile
     0000000F  ___bank_bg_startinghome_livingro   bg_startinghome_livingroomg_
     0000000F  ___bank_scene_b0_2_collisions      scene_b0_2_collisions
     0000000F  ___bank_scene_b0_2_gbc_collision   scene_b0_2_gbc_collisions
     0000000F  ___bank_scene_basement_stairs_wi   scene_basement_stairs_with__
     0000000F  ___bank_scene_item_screen_1_old_   scene_item_screen_1_old_init
     0000000F  ___bank_scene_item_screen_2_new_   scene_item_screen_2_new_acto
     0000000F  ___bank_sprite_characters_niko_n   sprite_characters_niko_niko_
     0000000F  b_core_reset                       core
     0000000F  b_core_run                         core
     0000000F  b_projectile_launch                projectiles
     0000000F  b_projectiles_init                 projectiles
     00000010  ___bank_VM_CAMERA                  vm_camera
     00000010  ___bank_VM_SIO                     vm_sio
ASxxxx Linker V03.00 + NoICE + sdld,  page 8.
Hexadecimal  [32-Bits]

Area                                    Addr        Size        Decimal Bytes (Attributes)
--------------------------------        ----        ----        ------- ----- ------------
.  .ABS.                            00000000    00000000 =           0. bytes (ABS,CON)

      Value  Global                              Global Defined In Module
      -----  --------------------------------   ------------------------
     00000010  ___bank_avatar_font_0              avatar_font_0
     00000010  ___bank_bg_gb_switch_jul162021_t   bg_gb_switch_jul162021_tiles
     00000010  ___bank_bg_input_password_screen   bg_input_password_screen_til
     00000010  ___bank_bg_new_folder_wip_baseme   bg_new_folder_wip_basement__
     00000010  ___bank_bg_startinghome_startgb_   bg_startinghome_startgb_tile
     00000010  ___bank_scene_the_end_scene__ini   scene_the_end_scene__init
     00000010  ___bank_script_input_14            script_input_14
     00000010  ___bank_script_input_4             script_input_4
     00000010  ___bank_script_input_9             script_input_9
     00000010  ___bank_sprite_text_sprite_numbe   sprite_text_sprite_numbers__
     00000010  ___bank_sprite_text_sprite_numbe   sprite_text_sprite_numbers__
     00000010  ___bank_trigger_12_interact        trigger_12_interact
     00000010  ___bank_trigger_13_interact        trigger_13_interact
     00000010  ___bank_trigger_7_interact         trigger_7_interact
     00000010  ___bank_trigger_9_interact         trigger_9_interact
     00000010  b___HandleCrash_banked             
     00000010  b_camera_shake_frames              vm_camera
     00000010  b_data_clear                       load_save
     00000010  b_data_init                        load_save
     00000010  b_data_load                        load_save
     00000010  b_data_peek                        load_save
     00000010  b_data_save                        load_save
     00000010  b_gbprinter_detect                 gbprinter
     00000010  b_gbprinter_print_overlay          gbprinter
     00000010  b_pointnclick_init                 pointnclick
     00000010  b_pointnclick_update               pointnclick
     00000010  b_set_sgb_border                   sgb_border
     00000010  b_trigger_activate_at              trigger
     00000010  b_trigger_activate_at_intersecti   trigger
     00000010  b_trigger_at_intersection          trigger
     00000010  b_trigger_at_tile                  trigger
     00000010  b_trigger_interact                 trigger
     00000010  b_trigger_reset                    trigger
     00000010  b_vm_camera_move_to                vm_camera
     00000010  b_vm_camera_set_pos                vm_camera
     00000010  b_vm_sio_exchange                  vm_sio
     00000010  b_vm_sio_set_mode                  vm_sio
     00000011  ___bank_actor_13_interact          actor_13_interact
     00000011  ___bank_actor_15_interact          actor_15_interact
     00000011  ___bank_actor_19_interact          actor_19_interact
     00000011  ___bank_actor_23_interact          actor_23_interact
     00000011  ___bank_bg_bathroomnew_tilemap     bg_bathroomnew_tilemap
     00000011  ___bank_bg_bathroomnew_tileset     bg_bathroomnew_tileset
     00000011  ___bank_bg_input_password_screen   bg_input_password_screen_v2_
     00000011  ___bank_bg_new_folder_wip_baseme   bg_new_folder_wip_basement__
     00000011  ___bank_bg_new_folder_wip_baseme   bg_new_folder_wip_basement__
     00000011  ___bank_bg_new_folder_wip_baseme   bg_new_folder_wip_basement__
     00000011  ___bank_scene_basement_light_col   scene_basement_light_collisi
     00000011  ___bank_scene_basement_no_light_   scene_basement_no_light_coll
     00000011  ___bank_scene_dev_room_actors      scene_dev_room_actors
     00000011  ___bank_scene_gbc_start_dark_bat   scene_gbc_start_dark_bathro_
ASxxxx Linker V03.00 + NoICE + sdld,  page 9.
Hexadecimal  [32-Bits]

Area                                    Addr        Size        Decimal Bytes (Attributes)
--------------------------------        ----        ----        ------- ----- ------------
.  .ABS.                            00000000    00000000 =           0. bytes (ABS,CON)

      Value  Global                              Global Defined In Module
      -----  --------------------------------   ------------------------
     00000011  ___bank_scene_input_password_old   scene_input_password_old__ac
     00000011  ___bank_scene_power_off__init      scene_power_off__init
     00000011  ___bank_scene_start_dark_bedroom   scene_start_dark_bedroom_act
     00000011  ___bank_scene_start_dark_bedroom   scene_start_dark_bedroom_ini
     00000011  ___bank_scene_tile_screen_gbc_in   scene_tile_screen_gbc_init
     00000011  ___bank_scene_title_screen_init    scene_title_screen_init
     00000011  ___bank_script_input_7             script_input_7
     00000011  ___bank_sprite_characters_niko_n   sprite_characters_niko_niko_
     00000011  ___bank_sprite_characters_niko_n   sprite_characters_niko_niko_
     00000011  ___bank_trigger_15_interact        trigger_15_interact
     00000011  ___bank_trigger_16_interact        trigger_16_interact
     00000011  ___bank_trigger_17_interact        trigger_17_interact
     00000011  ___bank_trigger_18_interact        trigger_18_interact
     00000011  ___bank_trigger_19_interact        trigger_19_interact
     00000011  ___bank_trigger_20_interact        trigger_20_interact
     00000011  ___bank_trigger_21_interact        trigger_21_interact
     00000011  ___bank_trigger_22_interact        trigger_22_interact
     00000011  ___bank_trigger_23_interact        trigger_23_interact
     00000011  ___bank_trigger_24_interact        trigger_24_interact
     00000011  ___bank_trigger_27_interact        trigger_27_interact
     00000011  ___bank_trigger_28_interact        trigger_28_interact
     00000011  ___bank_trigger_4_interact         trigger_4_interact
     00000011  ___bank_trigger_5_interact         trigger_5_interact
     00000011  l__EHL_TRAMPOLINE0              
     00000012  ___bank_actor_48_interact          actor_48_interact
     00000012  ___bank_bg_gb_switch_jul162021_t   bg_gb_switch_jul162021_tilem
     00000012  ___bank_bg_gb_switch_jul162021_t   bg_gb_switch_jul162021_tilem
     00000012  ___bank_bg_input_password_screen   bg_input_password_screen_til
     00000012  ___bank_bg_input_password_screen   bg_input_password_screen_v2_
     00000012  ___bank_bg_inv_sys_2_tilemap       bg_inv_sys_2_tilemap
     00000012  ___bank_bg_louis_endscreen_tilem   bg_louis_endscreen_tilemap
     00000012  ___bank_bg_normal_gb_optimized_t   bg_normal_gb_optimized_tilem
     00000012  ___bank_bg_normal_gbc_tilemap      bg_normal_gbc_tilemap
     00000012  ___bank_bg_normal_gbc_tilemap_at   bg_normal_gbc_tilemap_attr
     00000012  ___bank_bg_pictures_b3_gb_alt_ti   bg_pictures_b3_gb_alt_tilema
     00000012  ___bank_bg_pictures_b3_gb_alt_ti   bg_pictures_b3_gb_alt_tilema
     00000012  ___bank_bg_pictures_b3_gbc_alt_t   bg_pictures_b3_gbc_alt_tilem
     00000012  ___bank_bg_pictures_b4_gb_alt_ti   bg_pictures_b4_gb_alt_tilema
     00000012  ___bank_bg_pictures_b4_gb_alt_ti   bg_pictures_b4_gb_alt_tilema
     00000012  ___bank_bg_pictures_b4_gbc_alt_t   bg_pictures_b4_gbc_alt_tilem
     00000012  ___bank_bg_pictures_b5_gb_alt_ti   bg_pictures_b5_gb_alt_tilema
     00000012  ___bank_bg_pictures_b5_gb_alt_ti   bg_pictures_b5_gb_alt_tilema
     00000012  ___bank_bg_pictures_b5_gbc_alt_t   bg_pictures_b5_gbc_alt_tilem
     00000012  ___bank_bg_pictures_b6_gb_alt_ti   bg_pictures_b6_gb_alt_tilema
     00000012  ___bank_bg_pictures_b6_gb_alt_ti   bg_pictures_b6_gb_alt_tilema
     00000012  ___bank_bg_pictures_b6_gbc_alt_t   bg_pictures_b6_gbc_alt_tilem
     00000012  ___bank_bg_pictures_b7_gb_alt_ti   bg_pictures_b7_gb_alt_tilema
     00000012  ___bank_bg_pictures_b7_gb_alt_ti   bg_pictures_b7_gb_alt_tilema
     00000012  ___bank_bg_pictures_b7_gbc_alt_t   bg_pictures_b7_gbc_alt_tilem
     00000012  ___bank_bg_pictures_b7_gbc_alt_t   bg_pictures_b7_gbc_alt_tilem
     00000012  ___bank_bg_pictures_b8_gb_alt_ti   bg_pictures_b8_gb_alt_tilema
ASxxxx Linker V03.00 + NoICE + sdld,  page 10.
Hexadecimal  [32-Bits]

Area                                    Addr        Size        Decimal Bytes (Attributes)
--------------------------------        ----        ----        ------- ----- ------------
.  .ABS.                            00000000    00000000 =           0. bytes (ABS,CON)

      Value  Global                              Global Defined In Module
      -----  --------------------------------   ------------------------
     00000012  ___bank_bg_pictures_b8_gb_alt_ti   bg_pictures_b8_gb_alt_tilema
     00000012  ___bank_bg_pictures_b9_gb_alt_ti   bg_pictures_b9_gb_alt_tilema
     00000012  ___bank_bg_pictures_b9_gb_alt_ti   bg_pictures_b9_gb_alt_tilema
     00000012  ___bank_bg_pictures_cg_door1_gb_   bg_pictures_cg_door1_gb_tile
     00000012  ___bank_bg_pictures_cg_door2_gb_   bg_pictures_cg_door2_gb_tile
     00000012  ___bank_bg_pictures_cg_wake1_gb_   bg_pictures_cg_wake1_gb_tile
     00000012  ___bank_bg_pictures_cg_wake1_gb_   bg_pictures_cg_wake1_gb_tile
     00000012  ___bank_bg_pictures_cg_wake1_gbc   bg_pictures_cg_wake1_gbc_til
     00000012  ___bank_bg_pictures_cg_wake2_gb_   bg_pictures_cg_wake2_gb_tile
     00000012  ___bank_bg_pictures_cg_wake2_gb_   bg_pictures_cg_wake2_gb_tile
     00000012  ___bank_bg_pictures_cg_wake2_gbc   bg_pictures_cg_wake2_gbc_til
     00000012  ___bank_bg_pictures_cg_wake2_gbc   bg_pictures_cg_wake2_gbc_til
     00000012  ___bank_bg_pictures_cg_wake3_gb_   bg_pictures_cg_wake3_gb_tile
     00000012  ___bank_bg_pictures_cg_wake3_gb_   bg_pictures_cg_wake3_gb_tile
     00000012  ___bank_bg_pictures_cg_wake3_gbc   bg_pictures_cg_wake3_gbc_til
     00000012  ___bank_bg_pictures_cg_wake3_gbc   bg_pictures_cg_wake3_gbc_til
     00000012  ___bank_bg_pictures_cg_wake4_gb_   bg_pictures_cg_wake4_gb_tile
     00000012  ___bank_bg_pictures_cg_wake4_gb_   bg_pictures_cg_wake4_gb_tile
     00000012  ___bank_bg_pictures_cg_wake4_gbc   bg_pictures_cg_wake4_gbc_til
     00000012  ___bank_script_input_16            script_input_16
     00000013  ___bank_bg_new_folder_wip_baseme   bg_new_folder_wip_basement__
     00000013  ___bank_bg_pictures_cg_wake4_gbc   bg_pictures_cg_wake4_gbc_til
     00000013  ___bank_bg_pictures_cg_wake5_gb_   bg_pictures_cg_wake5_gb_tile
     00000013  ___bank_bg_pictures_cg_wake5_gbc   bg_pictures_cg_wake5_gbc_til
     00000013  ___bank_bg_pictures_cg_wake5_gbc   bg_pictures_cg_wake5_gbc_til
     00000013  ___bank_bg_placeholder_tilemap     bg_placeholder_tilemap
     00000013  ___bank_scene_b3_collisions        scene_b3_collisions
     00000013  ___bank_scene_b3_gbc_collisions    scene_b3_gbc_collisions
     00000013  ___bank_scene_b4_collisions        scene_b4_collisions
     00000013  ___bank_scene_b4_gbc_collisions    scene_b4_gbc_collisions
     00000013  ___bank_scene_b5_collisions        scene_b5_collisions
     00000013  ___bank_scene_b5_gbc_collisions    scene_b5_gbc_collisions
     00000013  ___bank_scene_b6_collisions        scene_b6_collisions
     00000013  ___bank_scene_b6_gbc_collisions    scene_b6_gbc_collisions
     00000013  ___bank_scene_b7_collisions        scene_b7_collisions
     00000013  ___bank_scene_b7_gbc_collisions    scene_b7_gbc_collisions
     00000013  ___bank_scene_b8_collisions        scene_b8_collisions
     00000013  ___bank_scene_b8_gbc_collisions    scene_b8_gbc_collisions
     00000013  ___bank_scene_b9_collisions        scene_b9_collisions
     00000013  ___bank_scene_b9_gbc_collisions    scene_b9_gbc_collisions
     00000013  ___bank_scene_cg_door_1_collisio   scene_cg_door_1_collisions
     00000013  ___bank_scene_cg_door_2_collisio   scene_cg_door_2_collisions
     00000013  ___bank_scene_cg_wake_1_collisio   scene_cg_wake_1_collisions
     00000013  ___bank_scene_cg_wake_2_collisio   scene_cg_wake_2_collisions
     00000013  ___bank_scene_cg_wake_3_collisio   scene_cg_wake_3_collisions
     00000013  ___bank_scene_cg_wake_4_collisio   scene_cg_wake_4_collisions
     00000013  ___bank_scene_cg_wake_5_collisio   scene_cg_wake_5_collisions
     00000013  ___bank_scene_dev_room_2_collisi   scene_dev_room_2_collisions
     00000013  ___bank_scene_dev_room_collision   scene_dev_room_collisions
     00000013  ___bank_scene_gbc_start_dark_bat   scene_gbc_start_dark_bathro_
     00000013  ___bank_scene_gbc_wake_01_collis   scene_gbc_wake_01_collisions
ASxxxx Linker V03.00 + NoICE + sdld,  page 11.
Hexadecimal  [32-Bits]

Area                                    Addr        Size        Decimal Bytes (Attributes)
--------------------------------        ----        ----        ------- ----- ------------
.  .ABS.                            00000000    00000000 =           0. bytes (ABS,CON)

      Value  Global                              Global Defined In Module
      -----  --------------------------------   ------------------------
     00000013  ___bank_scene_gbc_wake_02_collis   scene_gbc_wake_02_collisions
     00000013  ___bank_scene_gbc_wake_03_collis   scene_gbc_wake_03_collisions
     00000013  ___bank_scene_gbc_wake_04_collis   scene_gbc_wake_04_collisions
     00000013  ___bank_scene_gbc_wake_05_collis   scene_gbc_wake_05_collisions
     00000013  ___bank_scene_input_password_2_0   scene_input_password_2_0_col
     00000013  ___bank_scene_input_password_old   scene_input_password_old__co
     00000013  ___bank_scene_inventory_tester_c   scene_inventory_tester_colli
     00000013  ___bank_scene_item_screen_1_old_   scene_item_screen_1_old_coll
     00000013  ___bank_scene_item_screen_1_old_   scene_item_screen_1_old_spri
     00000013  ___bank_scene_power_off__collisi   scene_power_off__collisions
     00000013  ___bank_scene_start_dark_bathroo   scene_start_dark_bathroom_co
     00000013  ___bank_scene_start_dark_livingr   scene_start_dark_livingroom_
     00000013  ___bank_scene_the_end_scene__col   scene_the_end_scene__collisi
     00000013  ___bank_scene_tile_screen_gbc_co   scene_tile_screen_gbc_collis
     00000013  ___bank_scene_title_screen_colli   scene_title_screen_collision
     00000013  b_itoa_fmt                         vm_ui_a
     00000014  ___bank_VM_MATH                    vm_math
     00000014  ___bank_VM_MUSIC                   vm_music
     00000014  ___bank_VM_PROJECTILE              vm_projectiles
     00000014  ___bank_VM_RTC                     vm_rtc
     00000014  ___bank_actor_0_update             actor_0_update
     00000014  ___bank_actor_11_update            actor_11_update
     00000014  ___bank_actor_12_interact          actor_12_interact
     00000014  ___bank_actor_22_interact          actor_22_interact
     00000014  ___bank_actor_24_interact          actor_24_interact
     00000014  ___bank_actor_29_update            actor_29_update
     00000014  ___bank_actor_2_interact           actor_2_interact
     00000014  ___bank_actor_35_interact          actor_35_interact
     00000014  ___bank_actor_36_interact          actor_36_interact
     00000014  ___bank_actor_40_update            actor_40_update
     00000014  ___bank_actor_44_interact          actor_44_interact
     00000014  ___bank_actor_4_update             actor_4_update
     00000014  ___bank_actor_5_interact           actor_5_interact
     00000014  ___bank_actor_7_interact           actor_7_interact
     00000014  ___bank_actor_comments_0_update    actor_comments_0_update
     00000014  ___bank_actor_current_interacted   actor_current_interacted_sp_
     00000014  ___bank_actor_cursor_update        actor_cursor_update
     00000014  ___bank_actor_interaction_1_spri   actor_interaction_1_sprite_u
     00000014  ___bank_actor_interaction_sprite   actor_interaction_sprite_0_u
     00000014  ___bank_actor_interaction_sprite   actor_interaction_sprite_1_u
     00000014  ___bank_actor_interaction_sprite   actor_interaction_sprite_3_u
     00000014  ___bank_actor_spark_interact       actor_spark_interact
     00000014  ___bank_bg_pictures_b9_gb_alt_ti   bg_pictures_b9_gb_alt_tilese
     00000014  ___bank_scene_basement_stairs_in   scene_basement_stairs_init
     00000014  ___bank_scene_dev_room_2_actors    scene_dev_room_2_actors
     00000014  ___bank_scene_input_password_2_0   scene_input_password_2_0_act
     00000014  ___bank_scene_inventory_tester_a   scene_inventory_tester_actor
     00000014  ___bank_scene_item_screen_1_old_   scene_item_screen_1_old_acto
     00000014  ___bank_scene_start_dark_bathroo   scene_start_dark_bathroom_ac
     00000014  ___bank_script_input_0             script_input_0
     00000014  ___bank_script_input_10            script_input_10
ASxxxx Linker V03.00 + NoICE + sdld,  page 12.
Hexadecimal  [32-Bits]

Area                                    Addr        Size        Decimal Bytes (Attributes)
--------------------------------        ----        ----        ------- ----- ------------
.  .ABS.                            00000000    00000000 =           0. bytes (ABS,CON)

      Value  Global                              Global Defined In Module
      -----  --------------------------------   ------------------------
     00000014  ___bank_sprite_characters_niko_n   sprite_characters_niko_niko
     00000014  ___bank_sprite_characters_niko_n   sprite_characters_niko_niko_
     00000014  ___bank_sprite_fire_starts_start   sprite_fire_starts_start_sp_
     00000014  ___bank_sprite_mirror_gbc2_tiles   sprite_mirror_gbc2_tileset
     00000014  ___bank_sprite_mirror_gbc_tilese   sprite_mirror_gbc_tileset
     00000014  ___bank_trigger_29_interact        trigger_29_interact
     00000014  ___bank_trigger_30_interact        trigger_30_interact
     00000014  ___bank_trigger_58_interact        trigger_58_interact
     00000014  ___bank_trigger_59_interact        trigger_59_interact
     00000014  ___bank_trigger_60_interact        trigger_60_interact
     00000014  ___bank_trigger_61_interact        trigger_61_interact
     00000014  ___bank_trigger_62_interact        trigger_62_interact
     00000014  ___bank_trigger_63_interact        trigger_63_interact
     00000014  ___bank_trigger_64_interact        trigger_64_interact
     00000014  ___bank_trigger_65_interact        trigger_65_interact
     00000014  ___bank_trigger_66_interact        trigger_66_interact
     00000014  ___bank_trigger_67_interact        trigger_67_interact
     00000014  ___bank_trigger_68_interact        trigger_68_interact
     00000014  ___bank_trigger_69_interact        trigger_69_interact
     00000014  ___bank_trigger_70_interact        trigger_70_interact
     00000014  ___bank_trigger_71_interact        trigger_71_interact
     00000014  ___bank_trigger_72_interact        trigger_72_interact
     00000014  ___bank_trigger_73_interact        trigger_73_interact
     00000014  ___bank_trigger_74_interact        trigger_74_interact
     00000014  ___bank_trigger_75_interact        trigger_75_interact
     00000014  ___bank_trigger_76_interact        trigger_76_interact
     00000014  b_CGBZeroPalette                   palette
     00000014  b_SGBTransferPalettes              palette
     00000014  b_erase_flash                      
     00000014  b_music_events_poll                music_manager
     00000014  b_music_init_driver                music_manager
     00000014  b_music_init_events                music_manager
     00000014  b_palette_init                     palette
     00000014  b_save_sram_banks                  
     00000014  b_vm_cos_scale                     vm_math
     00000014  b_vm_music_mute                    vm_music
     00000014  b_vm_music_play                    vm_music
     00000014  b_vm_music_routine                 vm_music
     00000014  b_vm_music_setpos                  vm_music
     00000014  b_vm_music_stop                    vm_music
     00000014  b_vm_projectile_launch             vm_projectiles
     00000014  b_vm_projectile_load_type          vm_projectiles
     00000014  b_vm_rtc_get                       vm_rtc
     00000014  b_vm_rtc_latch                     vm_rtc
     00000014  b_vm_rtc_set                       vm_rtc
     00000014  b_vm_rtc_start                     vm_rtc
     00000014  b_vm_sfx_play                      vm_music
     00000014  b_vm_sin_scale                     vm_math
     00000014  b_vm_sound_mastervol               vm_music
     00000015  ___bank_VM_GBPRINTER               vm_gbprinter
     00000015  ___bank_VM_LOAD_SAVE               vm_load_save
ASxxxx Linker V03.00 + NoICE + sdld,  page 13.
Hexadecimal  [32-Bits]

Area                                    Addr        Size        Decimal Bytes (Attributes)
--------------------------------        ----        ----        ------- ----- ------------
.  .ABS.                            00000000    00000000 =           0. bytes (ABS,CON)

      Value  Global                              Global Defined In Module
      -----  --------------------------------   ------------------------
     00000015  ___bank_VM_SCENE                   vm_scene
     00000015  ___bank_actor_10_interact          actor_10_interact
     00000015  ___bank_actor_12_update            actor_12_update
     00000015  ___bank_actor_17_interact          actor_17_interact
     00000015  ___bank_actor_18_interact          actor_18_interact
     00000015  ___bank_actor_1_interact           actor_1_interact
     00000015  ___bank_actor_1_update             actor_1_update
     00000015  ___bank_actor_20_interact          actor_20_interact
     00000015  ___bank_actor_32_interact          actor_32_interact
     00000015  ___bank_actor_34_interact          actor_34_interact
     00000015  ___bank_actor_39_interact          actor_39_interact
     00000015  ___bank_actor_3_interact           actor_3_interact
     00000015  ___bank_actor_42_interact          actor_42_interact
     00000015  ___bank_actor_46_interact          actor_46_interact
     00000015  ___bank_actor_47_interact          actor_47_interact
     00000015  ___bank_actor_49_interact          actor_49_interact
     00000015  ___bank_actor_4_interact           actor_4_interact
     00000015  ___bank_actor_6_update             actor_6_update
     00000015  ___bank_actor_9_interact           actor_9_interact
     00000015  ___bank_actor_comments_update      actor_comments_update
     00000015  ___bank_actor_constantly_checks_   actor_constantly_checks_ite_
     00000015  ___bank_actor_green_interact       actor_green_interact
     00000015  ___bank_actor_keyhole_interact     actor_keyhole_interact
     00000015  ___bank_actor_niko_bed_2_interac   actor_niko_bed_2_interact
     00000015  ___bank_bg_inv_sys_2_tileset       bg_inv_sys_2_tileset
     00000015  ___bank_bg_new_folder_wip_baseme   bg_new_folder_wip_basement__
     00000015  ___bank_bg_placeholder_tileset     bg_placeholder_tileset
     00000015  ___bank_frame_image                frame_image
     00000015  ___bank_palette_0                  palette_0
     00000015  ___bank_palette_1                  palette_1
     00000015  ___bank_palette_10                 palette_10
     00000015  ___bank_palette_11                 palette_11
     00000015  ___bank_palette_12                 palette_12
     00000015  ___bank_palette_13                 palette_13
     00000015  ___bank_palette_14                 palette_14
     00000015  ___bank_palette_15                 palette_15
     00000015  ___bank_palette_16                 palette_16
     00000015  ___bank_palette_17                 palette_17
     00000015  ___bank_palette_18                 palette_18
     00000015  ___bank_palette_19                 palette_19
     00000015  ___bank_palette_2                  palette_2
     00000015  ___bank_palette_20                 palette_20
     00000015  ___bank_palette_21                 palette_21
     00000015  ___bank_palette_22                 palette_22
     00000015  ___bank_palette_23                 palette_23
     00000015  ___bank_palette_24                 palette_24
     00000015  ___bank_palette_25                 palette_25
     00000015  ___bank_palette_26                 palette_26
     00000015  ___bank_palette_27                 palette_27
     00000015  ___bank_palette_28                 palette_28
     00000015  ___bank_palette_29                 palette_29
ASxxxx Linker V03.00 + NoICE + sdld,  page 14.
Hexadecimal  [32-Bits]

Area                                    Addr        Size        Decimal Bytes (Attributes)
--------------------------------        ----        ----        ------- ----- ------------
.  .ABS.                            00000000    00000000 =           0. bytes (ABS,CON)

      Value  Global                              Global Defined In Module
      -----  --------------------------------   ------------------------
     00000015  ___bank_palette_3                  palette_3
     00000015  ___bank_palette_30                 palette_30
     00000015  ___bank_palette_31                 palette_31
     00000015  ___bank_palette_4                  palette_4
     00000015  ___bank_palette_5                  palette_5
     00000015  ___bank_palette_6                  palette_6
     00000015  ___bank_palette_7                  palette_7
     00000015  ___bank_palette_8                  palette_8
     00000015  ___bank_palette_9                  palette_9
     00000015  ___bank_scene_b0_2                 scene_b0_2
     00000015  ___bank_scene_b0_2_gbc             scene_b0_2_gbc
     00000015  ___bank_scene_b3                   scene_b3
     00000015  ___bank_scene_b3_gbc               scene_b3_gbc
     00000015  ___bank_scene_b4                   scene_b4
     00000015  ___bank_scene_b4_gbc               scene_b4_gbc
     00000015  ___bank_scene_b5                   scene_b5
     00000015  ___bank_scene_b5_gbc               scene_b5_gbc
     00000015  ___bank_scene_b6                   scene_b6
     00000015  ___bank_scene_b6_gbc               scene_b6_gbc
     00000015  ___bank_scene_b7                   scene_b7
     00000015  ___bank_scene_b7_gbc               scene_b7_gbc
     00000015  ___bank_scene_b8                   scene_b8
     00000015  ___bank_scene_b8_gbc               scene_b8_gbc
     00000015  ___bank_scene_b9                   scene_b9
     00000015  ___bank_scene_b9_gbc               scene_b9_gbc
     00000015  ___bank_scene_b9_gbc_init          scene_b9_gbc_init
     00000015  ___bank_scene_b9_init              scene_b9_init
     00000015  ___bank_scene_basement_light       scene_basement_light
     00000015  ___bank_scene_basement_light_act   scene_basement_light_actors
     00000015  ___bank_scene_basement_light_ini   scene_basement_light_init
     00000015  ___bank_scene_basement_no_light    scene_basement_no_light
     00000015  ___bank_scene_basement_no_light_   scene_basement_no_light_acto
     00000015  ___bank_scene_basement_no_light_   scene_basement_no_light_init
     00000015  ___bank_scene_basement_stairs      scene_basement_stairs
     00000015  ___bank_scene_basement_stairs_ac   scene_basement_stairs_actors
     00000015  ___bank_scene_basement_stairs_ol   scene_basement_stairs_old
     00000015  ___bank_scene_basement_stairs_ol   scene_basement_stairs_old_ac
     00000015  ___bank_scene_basement_stairs_ol   scene_basement_stairs_old_in
     00000015  ___bank_scene_basement_stairs_ol   scene_basement_stairs_old_tr
     00000015  ___bank_scene_basement_stairs_wi   scene_basement_stairs_with_
     00000015  ___bank_scene_basement_stairs_wi   scene_basement_stairs_with__
     00000015  ___bank_scene_basement_stairs_wi   scene_basement_stairs_with__
     00000015  ___bank_scene_cg_door_1            scene_cg_door_1
     00000015  ___bank_scene_cg_door_1_init       scene_cg_door_1_init
     00000015  ___bank_scene_cg_door_2            scene_cg_door_2
     00000015  ___bank_scene_cg_door_2_init       scene_cg_door_2_init
     00000015  ___bank_scene_cg_wake_1            scene_cg_wake_1
     00000015  ___bank_scene_cg_wake_2            scene_cg_wake_2
     00000015  ___bank_scene_cg_wake_3            scene_cg_wake_3
     00000015  ___bank_scene_cg_wake_4            scene_cg_wake_4
     00000015  ___bank_scene_cg_wake_5            scene_cg_wake_5
ASxxxx Linker V03.00 + NoICE + sdld,  page 15.
Hexadecimal  [32-Bits]

Area                                    Addr        Size        Decimal Bytes (Attributes)
--------------------------------        ----        ----        ------- ----- ------------
.  .ABS.                            00000000    00000000 =           0. bytes (ABS,CON)

      Value  Global                              Global Defined In Module
      -----  --------------------------------   ------------------------
     00000015  ___bank_scene_computer_cutscene    scene_computer_cutscene
     00000015  ___bank_scene_computer_cutscene_   scene_computer_cutscene_2
     00000015  ___bank_scene_computer_cutscene_   scene_computer_cutscene_2_in
     00000015  ___bank_scene_computer_cutscene_   scene_computer_cutscene_init
     00000015  ___bank_scene_dev_room             scene_dev_room
     00000015  ___bank_scene_dev_room_2           scene_dev_room_2
     00000015  ___bank_scene_docks                scene_docks
     00000015  ___bank_scene_docks_actors         scene_docks_actors
     00000015  ___bank_scene_gbc_start_dark_bat   scene_gbc_start_dark_bathro
     00000015  ___bank_scene_gbc_start_dark_bat   scene_gbc_start_dark_bathro_
     00000015  ___bank_scene_gbc_wake_01          scene_gbc_wake_01
     00000015  ___bank_scene_gbc_wake_02          scene_gbc_wake_02
     00000015  ___bank_scene_gbc_wake_03          scene_gbc_wake_03
     00000015  ___bank_scene_gbc_wake_04          scene_gbc_wake_04
     00000015  ___bank_scene_gbc_wake_05          scene_gbc_wake_05
     00000015  ___bank_scene_input_password_2_0   scene_input_password_2_0
     00000015  ___bank_scene_input_password_2_0   scene_input_password_2_0_ini
     00000015  ___bank_scene_input_password_old   scene_input_password_old_
     00000015  ___bank_scene_input_password_old   scene_input_password_old__tr
     00000015  ___bank_scene_inventory_tester     scene_inventory_tester
     00000015  ___bank_scene_inventory_tester_i   scene_inventory_tester_init
     00000015  ___bank_scene_item_screen_1_old    scene_item_screen_1_old
     00000015  ___bank_scene_item_screen_2_new    scene_item_screen_2_new
     00000015  ___bank_scene_item_screen_2_new_   scene_item_screen_2_new_init
     00000015  ___bank_scene_power_off_           scene_power_off_
     00000015  ___bank_scene_start_dark_bathroo   scene_start_dark_bathroom
     00000015  ___bank_scene_start_dark_bedroom   scene_start_dark_bedroom
     00000015  ___bank_scene_start_dark_livingr   scene_start_dark_livingroom
     00000015  ___bank_scene_the_end_scene_       scene_the_end_scene_
     00000015  ___bank_scene_tile_screen_gbc      scene_tile_screen_gbc
     00000015  ___bank_scene_tile_screen_gbc_ac   scene_tile_screen_gbc_actors
     00000015  ___bank_scene_title_screen         scene_title_screen
     00000015  ___bank_scene_title_screen_actor   scene_title_screen_actors
     00000015  ___bank_script_engine_init         
     00000015  ___bank_script_input_11            script_input_11
     00000015  ___bank_script_input_15            script_input_15
     00000015  ___bank_script_input_45            script_input_45
     00000015  ___bank_script_item_init_inv       script_item_init_inv
     00000015  ___bank_sprite_actor_tileset       sprite_actor_tileset
     00000015  ___bank_sprite_bed_nikoinbed_nik   sprite_bed_nikoinbed_niko_i
     00000015  ___bank_sprite_bed_nikoinbed_nik   sprite_bed_nikoinbed_niko_i_
     00000015  ___bank_sprite_bed_nikoinbed_nik   sprite_bed_nikoinbed_niko_o
     00000015  ___bank_sprite_bed_nikoinbed_nik   sprite_bed_nikoinbed_niko_o_
     00000015  ___bank_sprite_characters_niko_n   sprite_characters_niko_niko_
     00000015  ___bank_sprite_characters_niko_n   sprite_characters_niko_niko_
     00000015  ___bank_sprite_characters_niko_n   sprite_characters_niko_niko_
     00000015  ___bank_sprite_characters_niko_n   sprite_characters_niko_niko_
     00000015  ___bank_sprite_characters_niko_n   sprite_characters_niko_niko_
     00000015  ___bank_sprite_computer_computer   sprite_computer_computer_of
     00000015  ___bank_sprite_computer_computer   sprite_computer_computer_of_
     00000015  ___bank_sprite_cutscenes_niko_fa   sprite_cutscenes_niko_face_
ASxxxx Linker V03.00 + NoICE + sdld,  page 16.
Hexadecimal  [32-Bits]

Area                                    Addr        Size        Decimal Bytes (Attributes)
--------------------------------        ----        ----        ------- ----- ------------
.  .ABS.                            00000000    00000000 =           0. bytes (ABS,CON)

      Value  Global                              Global Defined In Module
      -----  --------------------------------   ------------------------
     00000015  ___bank_sprite_cutscenes_niko_fa   sprite_cutscenes_niko_face__
     00000015  ___bank_sprite_faces_louis_maxne   sprite_faces_louis_maxnexus
     00000015  ___bank_sprite_faces_louis_maxne   sprite_faces_louis_maxnexus_
     00000015  ___bank_sprite_faces_nikoamazed    sprite_faces_nikoamazed
     00000015  ___bank_sprite_faces_nikoamazed_   sprite_faces_nikoamazed_tile
     00000015  ___bank_sprite_fire_starts_start   sprite_fire_starts_start_fi_
     00000015  ___bank_sprite_fire_starts_start   sprite_fire_starts_start_fi_
     00000015  ___bank_sprite_fire_starts_start   sprite_fire_starts_start_sp
     00000015  ___bank_sprite_icons_item_start_   sprite_icons_item_start_bot
     00000015  ___bank_sprite_icons_item_start_   sprite_icons_item_start_bot_
     00000015  ___bank_sprite_icons_item_start_   sprite_icons_item_start_bot_
     00000015  ___bank_sprite_icons_item_start_   sprite_icons_item_start_bot_
     00000015  ___bank_sprite_icons_item_start_   sprite_icons_item_start_bra
     00000015  ___bank_sprite_icons_item_start_   sprite_icons_item_start_bra_
     00000015  ___bank_sprite_icons_item_start_   sprite_icons_item_start_bra_
     00000015  ___bank_sprite_icons_item_start_   sprite_icons_item_start_bra_
     00000015  ___bank_sprite_icons_item_start_   sprite_icons_item_start_key
     00000015  ___bank_sprite_icons_item_start_   sprite_icons_item_start_key_
     00000015  ___bank_sprite_icons_item_start_   sprite_icons_item_start_lig
     00000015  ___bank_sprite_icons_item_start_   sprite_icons_item_start_lig_
     00000015  ___bank_sprite_icons_item_start_   sprite_icons_item_start_rem_
     00000015  ___bank_sprite_icons_item_start_   sprite_icons_item_start_tor_
     00000015  ___bank_sprite_mirror_gbc          sprite_mirror_gbc
     00000015  ___bank_sprite_mirror_gbc2         sprite_mirror_gbc2
     00000015  ___bank_sprite_static_tileset      sprite_static_tileset
     00000015  ___bank_sprite_text_sprite_numbe   sprite_text_sprite_numbers_
     00000015  ___bank_sprite_text_sprite_numbe   sprite_text_sprite_numbers__
     00000015  ___bank_trigger_0_interact         trigger_0_interact
     00000015  ___bank_trigger_26_interact        trigger_26_interact
     00000015  ___bank_trigger_31_interact        trigger_31_interact
     00000015  ___bank_trigger_33_interact        trigger_33_interact
     00000015  ___bank_trigger_34_interact        trigger_34_interact
     00000015  ___bank_trigger_35_interact        trigger_35_interact
     00000015  ___bank_trigger_39_interact        trigger_39_interact
     00000015  ___bank_trigger_40_interact        trigger_40_interact
     00000015  ___bank_trigger_42_interact        trigger_42_interact
     00000015  ___bank_trigger_43_interact        trigger_43_interact
     00000015  ___bank_trigger_47_interact        trigger_47_interact
     00000015  ___bank_trigger_52_interact        trigger_52_interact
     00000015  ___bank_trigger_77_interact        trigger_77_interact
     00000015  b_events_init                      events
     00000015  b_restore_sram                     flasher
     00000015  b_restore_sram_bank                flasher
     00000015  b_save_sram                        flasher
     00000015  b_scroll_rect                      
     00000015  b_timers_init                      events
     00000015  b_vm_print_detect                  vm_gbprinter
     00000015  b_vm_print_overlay                 vm_gbprinter
     00000015  b_vm_save_clear                    vm_load_save
     00000015  b_vm_save_peek                     vm_load_save
     00000015  b_vm_scene_pop                     vm_scene
ASxxxx Linker V03.00 + NoICE + sdld,  page 17.
Hexadecimal  [32-Bits]

Area                                    Addr        Size        Decimal Bytes (Attributes)
--------------------------------        ----        ----        ------- ----- ------------
.  .ABS.                            00000000    00000000 =           0. bytes (ABS,CON)

      Value  Global                              Global Defined In Module
      -----  --------------------------------   ------------------------
     00000015  b_vm_scene_pop_all                 vm_scene
     00000015  b_vm_scene_push                    vm_scene
     00000015  b_vm_scene_stack_reset             vm_scene
     00000016  ___bank_actor_14_interact          actor_14_interact
     00000016  ___bank_actor_21_interact          actor_21_interact
     00000016  ___bank_actor_25_interact          actor_25_interact
     00000016  ___bank_actor_26_interact          actor_26_interact
     00000016  ___bank_actor_27_interact          actor_27_interact
     00000016  ___bank_actor_30_interact          actor_30_interact
     00000016  ___bank_actor_33_interact          actor_33_interact
     00000016  ___bank_actor_37_interact          actor_37_interact
     00000016  ___bank_actor_43_interact          actor_43_interact
     00000016  ___bank_actor_8_interact           actor_8_interact
     00000016  ___bank_actor_blue_interact        actor_blue_interact
     00000016  ___bank_actor_blue_number_screen   actor_blue_number_screen_int
     00000016  ___bank_actor_comments_interact    actor_comments_interact
     00000016  ___bank_actor_green_number_scree   actor_green_number_screen_in
     00000016  ___bank_actor_red_interact         actor_red_interact
     00000016  ___bank_actor_red_number_screen_   actor_red_number_screen_inte
     00000016  ___bank_actor_yellow_interact      actor_yellow_interact
     00000016  ___bank_actor_yellow_number_scre   actor_yellow_number_screen_i
     00000016  ___bank_bg_barrens_docksgb         bg_barrens_docksgb
     00000016  ___bank_bg_bathroomnew             bg_bathroomnew
     00000016  ___bank_bg_gb_switch_jul162021     bg_gb_switch_jul162021
     00000016  ___bank_bg_input_password_screen   bg_input_password_screen
     00000016  ___bank_bg_input_password_screen   bg_input_password_screen_v2
     00000016  ___bank_bg_inv_sys_2               bg_inv_sys_2
     00000016  ___bank_bg_louis_endscreen         bg_louis_endscreen
     00000016  ___bank_bg_menus_newinvmenu        bg_menus_newinvmenu
     00000016  ___bank_bg_new_folder_wip_baseme   bg_new_folder_wip_basement_
     00000016  ___bank_bg_new_folder_wip_baseme   bg_new_folder_wip_basement__
     00000016  ___bank_bg_new_folder_wip_baseme   bg_new_folder_wip_basement__
     00000016  ___bank_bg_normal_gb_optimized     bg_normal_gb_optimized
     00000016  ___bank_bg_normal_gbc              bg_normal_gbc
     00000016  ___bank_bg_pictures_b0_2           bg_pictures_b0_2
     00000016  ___bank_bg_pictures_b0_2_gbc       bg_pictures_b0_2_gbc
     00000016  ___bank_bg_pictures_b3_gb_alt      bg_pictures_b3_gb_alt
     00000016  ___bank_bg_pictures_b3_gbc_alt     bg_pictures_b3_gbc_alt
     00000016  ___bank_bg_pictures_b4_gb_alt      bg_pictures_b4_gb_alt
     00000016  ___bank_bg_pictures_b4_gbc_alt     bg_pictures_b4_gbc_alt
     00000016  ___bank_bg_pictures_b5_gb_alt      bg_pictures_b5_gb_alt
     00000016  ___bank_bg_pictures_b5_gbc_alt     bg_pictures_b5_gbc_alt
     00000016  ___bank_bg_pictures_b6_gb_alt      bg_pictures_b6_gb_alt
     00000016  ___bank_bg_pictures_b6_gbc_alt     bg_pictures_b6_gbc_alt
     00000016  ___bank_bg_pictures_b7_gb_alt      bg_pictures_b7_gb_alt
     00000016  ___bank_bg_pictures_b7_gbc_alt     bg_pictures_b7_gbc_alt
     00000016  ___bank_bg_pictures_b8_gb_alt      bg_pictures_b8_gb_alt
     00000016  ___bank_bg_pictures_b8_gbc_alt     bg_pictures_b8_gbc_alt
     00000016  ___bank_bg_pictures_b9_gb_alt      bg_pictures_b9_gb_alt
     00000016  ___bank_bg_pictures_cg_desktop_n   bg_pictures_cg_desktop_no_e_
     00000016  ___bank_bg_pictures_cg_desktop_n   bg_pictures_cg_desktop_no_e_
ASxxxx Linker V03.00 + NoICE + sdld,  page 18.
Hexadecimal  [32-Bits]

Area                                    Addr        Size        Decimal Bytes (Attributes)
--------------------------------        ----        ----        ------- ----- ------------
.  .ABS.                            00000000    00000000 =           0. bytes (ABS,CON)

      Value  Global                              Global Defined In Module
      -----  --------------------------------   ------------------------
     00000016  ___bank_bg_pictures_cg_door1_gb    bg_pictures_cg_door1_gb
     00000016  ___bank_bg_pictures_cg_door2_gb    bg_pictures_cg_door2_gb
     00000016  ___bank_bg_pictures_cg_wake1_gb    bg_pictures_cg_wake1_gb
     00000016  ___bank_bg_pictures_cg_wake1_gbc   bg_pictures_cg_wake1_gbc
     00000016  ___bank_bg_pictures_cg_wake2_gb    bg_pictures_cg_wake2_gb
     00000016  ___bank_bg_pictures_cg_wake2_gbc   bg_pictures_cg_wake2_gbc
     00000016  ___bank_bg_pictures_cg_wake3_gb    bg_pictures_cg_wake3_gb
     00000016  ___bank_bg_pictures_cg_wake3_gbc   bg_pictures_cg_wake3_gbc
     00000016  ___bank_bg_pictures_cg_wake4_gb    bg_pictures_cg_wake4_gb
     00000016  ___bank_bg_pictures_cg_wake4_gbc   bg_pictures_cg_wake4_gbc
     00000016  ___bank_bg_pictures_cg_wake5_gb    bg_pictures_cg_wake5_gb
     00000016  ___bank_bg_pictures_cg_wake5_gbc   bg_pictures_cg_wake5_gbc
     00000016  ___bank_bg_placeholder             bg_placeholder
     00000016  ___bank_bg_startinghome_livingro   bg_startinghome_livingroomg
     00000016  ___bank_bg_startinghome_startgb    bg_startinghome_startgb
     00000016  ___bank_bootstrap_script           
     00000016  ___bank_cursor_image               cursor_image
     00000016  ___bank_scene_b0_2_gbc_init        scene_b0_2_gbc_init
     00000016  ___bank_scene_b0_2_init            scene_b0_2_init
     00000016  ___bank_scene_b3_gbc_init          scene_b3_gbc_init
     00000016  ___bank_scene_b3_init              scene_b3_init
     00000016  ___bank_scene_b4_gbc_init          scene_b4_gbc_init
     00000016  ___bank_scene_b4_init              scene_b4_init
     00000016  ___bank_scene_b5_gbc_init          scene_b5_gbc_init
     00000016  ___bank_scene_b5_init              scene_b5_init
     00000016  ___bank_scene_b6_gbc_init          scene_b6_gbc_init
     00000016  ___bank_scene_b6_init              scene_b6_init
     00000016  ___bank_scene_b7_gbc_init          scene_b7_gbc_init
     00000016  ___bank_scene_b7_init              scene_b7_init
     00000016  ___bank_scene_b8_gbc_init          scene_b8_gbc_init
     00000016  ___bank_scene_b8_init              scene_b8_init
     00000016  ___bank_scene_basement_light_tri   scene_basement_light_trigger
     00000016  ___bank_scene_basement_no_light_   scene_basement_no_light_spri
     00000016  ___bank_scene_basement_no_light_   scene_basement_no_light_trig
     00000016  ___bank_scene_basement_stairs_ol   scene_basement_stairs_old_sp
     00000016  ___bank_scene_basement_stairs_sp   scene_basement_stairs_sprite
     00000016  ___bank_scene_basement_stairs_tr   scene_basement_stairs_trigge
     00000016  ___bank_scene_basement_stairs_wi   scene_basement_stairs_with__
     00000016  ___bank_scene_cg_wake_1_init       scene_cg_wake_1_init
     00000016  ___bank_scene_cg_wake_2_init       scene_cg_wake_2_init
     00000016  ___bank_scene_cg_wake_3_init       scene_cg_wake_3_init
     00000016  ___bank_scene_cg_wake_4_init       scene_cg_wake_4_init
     00000016  ___bank_scene_cg_wake_5_init       scene_cg_wake_5_init
     00000016  ___bank_scene_dev_room_2_init      scene_dev_room_2_init
     00000016  ___bank_scene_dev_room_2_sprites   scene_dev_room_2_sprites
     00000016  ___bank_scene_docks_init           scene_docks_init
     00000016  ___bank_scene_docks_sprites        scene_docks_sprites
     00000016  ___bank_scene_gbc_start_dark_bat   scene_gbc_start_dark_bathro_
     00000016  ___bank_scene_gbc_wake_01_init     scene_gbc_wake_01_init
     00000016  ___bank_scene_gbc_wake_02_init     scene_gbc_wake_02_init
     00000016  ___bank_scene_gbc_wake_03_init     scene_gbc_wake_03_init
ASxxxx Linker V03.00 + NoICE + sdld,  page 19.
Hexadecimal  [32-Bits]

Area                                    Addr        Size        Decimal Bytes (Attributes)
--------------------------------        ----        ----        ------- ----- ------------
.  .ABS.                            00000000    00000000 =           0. bytes (ABS,CON)

      Value  Global                              Global Defined In Module
      -----  --------------------------------   ------------------------
     00000016  ___bank_scene_gbc_wake_04_init     scene_gbc_wake_04_init
     00000016  ___bank_scene_gbc_wake_05_init     scene_gbc_wake_05_init
     00000016  ___bank_scene_input_password_2_0   scene_input_password_2_0_spr
     00000016  ___bank_scene_inventory_tester_s   scene_inventory_tester_sprit
     00000016  ___bank_scene_item_screen_1_old_   scene_item_screen_1_old_trig
     00000016  ___bank_scene_item_screen_2_new_   scene_item_screen_2_new_spri
     00000016  ___bank_scene_start_dark_bathroo   scene_start_dark_bathroom_in
     00000016  ___bank_scene_start_dark_bathroo   scene_start_dark_bathroom_sp
     00000016  ___bank_scene_start_dark_bathroo   scene_start_dark_bathroom_tr
     00000016  ___bank_scene_start_dark_bedroom   scene_start_dark_bedroom_spr
     00000016  ___bank_scene_start_dark_bedroom   scene_start_dark_bedroom_tri
     00000016  ___bank_scene_start_dark_livingr   scene_start_dark_livingroom_
     00000016  ___bank_scene_start_dark_livingr   scene_start_dark_livingroom_
     00000016  ___bank_scene_tile_screen_gbc_sp   scene_tile_screen_gbc_sprite
     00000016  ___bank_script_input_12            script_input_12
     00000016  ___bank_script_input_18            script_input_18
     00000016  ___bank_script_input_19            script_input_19
     00000016  ___bank_script_input_2             script_input_2
     00000016  ___bank_script_input_20            script_input_20
     00000016  ___bank_script_input_21            script_input_21
     00000016  ___bank_script_input_22            script_input_22
     00000016  ___bank_script_input_23            script_input_23
     00000016  ___bank_script_input_24            script_input_24
     00000016  ___bank_script_input_25            script_input_25
     00000016  ___bank_script_input_26            script_input_26
     00000016  ___bank_script_input_27            script_input_27
     00000016  ___bank_script_input_28            script_input_28
     00000016  ___bank_script_input_29            script_input_29
     00000016  ___bank_script_input_3             script_input_3
     00000016  ___bank_script_input_30            script_input_30
     00000016  ___bank_script_input_31            script_input_31
     00000016  ___bank_script_input_32            script_input_32
     00000016  ___bank_script_input_33            script_input_33
     00000016  ___bank_script_input_34            script_input_34
     00000016  ___bank_script_input_35            script_input_35
     00000016  ___bank_script_input_36            script_input_36
     00000016  ___bank_script_input_37            script_input_37
     00000016  ___bank_script_input_38            script_input_38
     00000016  ___bank_script_input_39            script_input_39
     00000016  ___bank_script_input_40            script_input_40
     00000016  ___bank_script_input_41            script_input_41
     00000016  ___bank_script_input_42            script_input_42
     00000016  ___bank_script_input_43            script_input_43
     00000016  ___bank_script_input_44            script_input_44
     00000016  ___bank_script_input_5             script_input_5
     00000016  ___bank_script_input_6             script_input_6
     00000016  ___bank_script_input_8             script_input_8
     00000016  ___bank_script_timer_0             script_timer_0
     00000016  ___bank_script_timer_1             script_timer_1
     00000016  ___bank_script_timer_10            script_timer_10
     00000016  ___bank_script_timer_2             script_timer_2
ASxxxx Linker V03.00 + NoICE + sdld,  page 20.
Hexadecimal  [32-Bits]

Area                                    Addr        Size        Decimal Bytes (Attributes)
--------------------------------        ----        ----        ------- ----- ------------
.  .ABS.                            00000000    00000000 =           0. bytes (ABS,CON)

      Value  Global                              Global Defined In Module
      -----  --------------------------------   ------------------------
     00000016  ___bank_script_timer_3             script_timer_3
     00000016  ___bank_script_timer_4             script_timer_4
     00000016  ___bank_script_timer_5             script_timer_5
     00000016  ___bank_script_timer_6             script_timer_6
     00000016  ___bank_script_timer_7             script_timer_7
     00000016  ___bank_script_timer_8             script_timer_8
     00000016  ___bank_script_timer_9             script_timer_9
     00000016  ___bank_sound_legacy_0             sound_legacy_0
     00000016  ___bank_sound_legacy_1             sound_legacy_1
     00000016  ___bank_sound_legacy_2             sound_legacy_2
     00000016  ___bank_sound_legacy_3             sound_legacy_3
     00000016  ___bank_sprite_fire_starts_start   sprite_fire_starts_start_fi
     00000016  ___bank_sprite_fire_starts_start   sprite_fire_starts_start_fi_
     00000016  ___bank_sprite_generic_invisible   sprite_generic_invisible
     00000016  ___bank_sprite_generic_invisible   sprite_generic_invisible_co
     00000016  ___bank_sprite_generic_invisible   sprite_generic_invisible_co_
     00000016  ___bank_sprite_icons_item_start_   sprite_icons_item_start_rem
     00000016  ___bank_sprite_icons_item_start_   sprite_icons_item_start_tor
     00000016  ___bank_sprite_niko_possible_red   sprite_niko_possible_redesi
     00000016  ___bank_sprite_niko_possible_red   sprite_niko_possible_redesi_
     00000016  ___bank_sprite_niko_possible_red   sprite_niko_possible_redesi_
     00000016  ___bank_sprite_niko_possible_red   sprite_niko_possible_redesi_
     00000016  ___bank_sprite_scarf01             sprite_scarf01
     00000016  ___bank_sprite_scarf01_tileset     sprite_scarf01_tileset
     00000016  ___bank_sprite_static              sprite_static
     00000016  ___bank_spritesheet_none           spritesheet_none
     00000016  ___bank_trigger_10_interact        trigger_10_interact
     00000016  ___bank_trigger_11_interact        trigger_11_interact
     00000016  ___bank_trigger_14_interact        trigger_14_interact
     00000016  ___bank_trigger_1_interact         trigger_1_interact
     00000016  ___bank_trigger_25_interact        trigger_25_interact
     00000016  ___bank_trigger_2_interact         trigger_2_interact
     00000016  ___bank_trigger_32_interact        trigger_32_interact
     00000016  ___bank_trigger_37_interact        trigger_37_interact
     00000016  ___bank_trigger_38_interact        trigger_38_interact
     00000016  ___bank_trigger_3_interact         trigger_3_interact
     00000016  ___bank_trigger_44_interact        trigger_44_interact
     00000016  ___bank_trigger_45_interact        trigger_45_interact
     00000016  ___bank_trigger_46_interact        trigger_46_interact
     00000016  ___bank_trigger_48_interact        trigger_48_interact
     00000016  ___bank_trigger_49_interact        trigger_49_interact
     00000016  ___bank_trigger_50_interact        trigger_50_interact
     00000016  ___bank_trigger_51_interact        trigger_51_interact
     00000016  ___bank_trigger_53_interact        trigger_53_interact
     00000016  ___bank_trigger_54_interact        trigger_54_interact
     00000016  ___bank_trigger_55_interact        trigger_55_interact
     00000016  ___bank_trigger_56_interact        trigger_56_interact
     00000016  ___bank_trigger_57_interact        trigger_57_interact
     00000016  ___bank_trigger_6_interact         trigger_6_interact
     00000016  ___bank_trigger_78_interact        trigger_78_interact
     00000016  ___bank_trigger_79_interact        trigger_79_interact
ASxxxx Linker V03.00 + NoICE + sdld,  page 21.
Hexadecimal  [32-Bits]

Area                                    Addr        Size        Decimal Bytes (Attributes)
--------------------------------        ----        ----        ------- ----- ------------
.  .ABS.                            00000000    00000000 =           0. bytes (ABS,CON)

      Value  Global                              Global Defined In Module
      -----  --------------------------------   ------------------------
     00000016  ___bank_trigger_80_interact        trigger_80_interact
     00000016  ___bank_trigger_81_interact        trigger_81_interact
     00000016  ___bank_trigger_8_interact         trigger_8_interact
     00000016  b_SIO_init                         sio
     00000016  b_camera_init                      camera
     00000016  b_camera_reset                     camera
     00000016  b_input_init                       input
     00000016  b_logo_init                        logo
     00000016  b_logo_update                      logo
     00000016  b_parallax_init                    parallax
     00000016  b_remove_LCD_ISRs                  interrupts
     00000019  l__INITIALIZED                  
     00000019  l__INITIALIZER                  
     0000001C  __start_save                    
     00000027  l__GSINIT                       
     00000030  l__HEADER6                      
     0000004E  l__HEADER4                      
     00000080  ___size_SGB_border_pal             border
     00000082  l__HEADER10                     
     000001CB  l__CRASH_SCRATCH2               
     00000200  s__CODE                         
     00000700  ___size_SGB_border_map             border
     00000C51  l__CODE                         
     00000D40  ___size_SGB_border_chr             border
     00000E51  s__HOME                         
     00001539  l__CODE_22                      
     0000197F  l__DATA                         
     00002000  _rROMB0                            
     00002CDF  l__HOME                         
     00003000  _rROMB1                            
     00003B30  s__BASE                         
     00003B30  s__CODE_0                       
     00003B30  s__INITIALIZER                  
     00003B30  s__LIT                          
     00003B49  s__GSINIT                       
     00003B70  s__GSFINAL                      
     00004000  _RTC_SELECT_REG                    vm_rtc
     00004000  _rRAMB                             
     00004000  l__CODE_1                       
     00004000  l__CODE_10                      
     00004000  l__CODE_11                      
     00004000  l__CODE_12                      
     00004000  l__CODE_13                      
     00004000  l__CODE_14                      
     00004000  l__CODE_15                      
     00004000  l__CODE_16                      
     00004000  l__CODE_17                      
     00004000  l__CODE_18                      
     00004000  l__CODE_19                      
     00004000  l__CODE_2                       
     00004000  l__CODE_20                      
ASxxxx Linker V03.00 + NoICE + sdld,  page 22.
Hexadecimal  [32-Bits]

Area                                    Addr        Size        Decimal Bytes (Attributes)
--------------------------------        ----        ----        ------- ----- ------------
.  .ABS.                            00000000    00000000 =           0. bytes (ABS,CON)

      Value  Global                              Global Defined In Module
      -----  --------------------------------   ------------------------
     00004000  l__CODE_21                      
     00004000  l__CODE_3                       
     00004000  l__CODE_4                       
     00004000  l__CODE_5                       
     00004000  l__CODE_6                       
     00004000  l__CODE_7                       
     00004000  l__CODE_8                       
     00004000  l__CODE_9                       
     00006000  _RTC_LATCH_REG                     vm_rtc
     00008000  __VRAM                             
     00008000  __VRAM8000                         
     00008800  __VRAM8800                         
     00009000  __VRAM9000                         
     00009800  __SCRN0                            
     00009C00  __SCRN1                            
     0000A000  _RTC_VALUE_REG                     vm_rtc
     0000A000  __SRAM                             
     0000C000  __RAM                              
     0000C000  _shadow_OAM                     
     0000C0A0  s__DATA                         
     0000D000  __RAMBANK                          
     0000DA1F  s__BSS                          
     0000DA1F  s__INITIALIZED                  
     0000DA38  s__HEAP                         
     0000DF00  .STACK                          
     0000DF00  _shadow_OAM2                       absolute
     0000DFA0  _BkgPalette                        absolute
     0000DFE0  _vwf_tile_data                     absolute
     0000FE00  __OAMRAM                           
     0000FF00  _P1_REG                            
     0000FF00  __IO                               
     0000FF01  _SB_REG                            
     0000FF02  _SC_REG                            
     0000FF04  _DIV_REG                           
     0000FF05  _TIMA_REG                          
     0000FF06  _TMA_REG                           
     0000FF07  _TAC_REG                           
     0000FF0F  _IF_REG                            
     0000FF10  _NR10_REG                          
     0000FF11  _NR11_REG                          
     0000FF12  _NR12_REG                          
     0000FF13  _NR13_REG                          
     0000FF14  _NR14_REG                          
     0000FF16  _NR21_REG                          
     0000FF17  _NR22_REG                          
     0000FF18  _NR23_REG                          
     0000FF19  _NR24_REG                          
     0000FF1A  _NR30_REG                          
     0000FF1B  _NR31_REG                          
     0000FF1C  _NR32_REG                          
     0000FF1D  _NR33_REG                          
ASxxxx Linker V03.00 + NoICE + sdld,  page 23.
Hexadecimal  [32-Bits]

Area                                    Addr        Size        Decimal Bytes (Attributes)
--------------------------------        ----        ----        ------- ----- ------------
.  .ABS.                            00000000    00000000 =           0. bytes (ABS,CON)

      Value  Global                              Global Defined In Module
      -----  --------------------------------   ------------------------
     0000FF1E  _NR34_REG                          
     0000FF20  _NR41_REG                          
     0000FF21  _NR42_REG                          
     0000FF22  _NR43_REG                          
     0000FF23  _NR44_REG                          
     0000FF24  _NR50_REG                          
     0000FF25  _NR51_REG                          
     0000FF26  _NR52_REG                          
     0000FF30  _AUD3WAVE                          
     0000FF30  _PCM_SAMPLE                        
     0000FF30  __AUD3WAVERAM                      
     0000FF40  _LCDC_REG                          
     0000FF41  _STAT_REG                          
     0000FF42  _SCY_REG                           
     0000FF43  _SCX_REG                           
     0000FF44  _LY_REG                            
     0000FF45  _LYC_REG                           
     0000FF46  _DMA_REG                           
     0000FF47  _BGP_REG                           
     0000FF48  _OBP0_REG                          
     0000FF49  _OBP1_REG                          
     0000FF4A  _WY_REG                            
     0000FF4B  _WX_REG                            
     0000FF4D  _KEY1_REG                          
     0000FF4F  _VBK_REG                           
     0000FF51  _HDMA1_REG                         
     0000FF52  _HDMA2_REG                         
     0000FF53  _HDMA3_REG                         
     0000FF54  _HDMA4_REG                         
     0000FF55  _HDMA5_REG                         
     0000FF56  _RP_REG                            
     0000FF68  _BCPS_REG                          
     0000FF69  _BCPD_REG                          
     0000FF6A  _OCPS_REG                          
     0000FF6B  _OCPD_REG                          
     0000FF70  _SVBK_REG                          
     0000FF76  _PCM12_REG                         
     0000FF77  _PCM34_REG                         
     0000FF80  .refresh_OAM                    
     0000FF80  __HRAM                             
     0000FFFF  _IE_REG                            
     00014000  s__CODE_1                       
     00024000  s__CODE_2                       
     00034000  s__CODE_3                       
     00044000  s__CODE_4                       
     00054000  s__CODE_5                       
     00064000  s__CODE_6                       
     00074000  s__CODE_7                       
     00084000  s__CODE_8                       
     00094000  s__CODE_9                       
     000A4000  s__CODE_10                      
ASxxxx Linker V03.00 + NoICE + sdld,  page 24.
Hexadecimal  [32-Bits]

Area                                    Addr        Size        Decimal Bytes (Attributes)
--------------------------------        ----        ----        ------- ----- ------------
.  .ABS.                            00000000    00000000 =           0. bytes (ABS,CON)

      Value  Global                              Global Defined In Module
      -----  --------------------------------   ------------------------
     000B4000  s__CODE_11                      
     000C4000  s__CODE_12                      
     000D4000  s__CODE_13                      
     000E4000  s__CODE_14                      
     000F4000  s__CODE_15                      
     00104000  s__CODE_16                      
     00114000  s__CODE_17                      
     00124000  s__CODE_18                      
     00134000  s__CODE_19                      
     00144000  s__CODE_20                      
     00154000  s__CODE_21                      
     00164000  s__CODE_22                      

ASxxxx Linker V03.00 + NoICE + sdld,  page 25.
Hexadecimal  [32-Bits]

Area                                    Addr        Size        Decimal Bytes (Attributes)
--------------------------------        ----        ----        ------- ----- ------------
_CODE                               00000200    00000C51 =        3153. bytes (REL,CON)

      Value  Global                              Global Defined In Module
      -----  --------------------------------   ------------------------
     00000200  ___HandleCrash                     
     0000020A  _SIO_send_byte                     
     0000021D  _SIO_receive                       
     0000022E  _SetTile                           
     0000023D  _set_win_tile_xy                   
     00000242  _set_bkg_tile_xy                   
     00000265  _GetWinAddr                        
     0000026D  _GetBkgAddr                        
     0000027B  _state_init                        
     00000280  _state_update                      
     000002A2  _ui_time_masks                     
     000002AA  _ui_print_shift_char               
     0000032D  _ui_draw_frame_row                 
     00000336  .ui_draw_frame_row                 
     0000035F  _script_cmds                       vm_instructions
     00000593  _save_signature                    game_signature
     00000597  _start_scene_x                     
     00000599  _start_scene_y                     
     0000059B  _start_scene_dir                   
     0000059C  _start_scene                       
     0000059F  _start_player_move_speed           
     000005A0  _start_player_anim_tick            
     000005A1  _ui_fonts                          
     000005A7  _core_reset_hook                   main
     000005AF  _main                              main
     000005B7  _state_start_fns                   
     000005C9  _state_update_fns                  
     000005DB  _hUGE_init_banked                  hUGEDriver_obj
     000005DF  _hUGE_init                         hUGEDriver_obj
     000005EA  _hUGE_mute_channel_banked          hUGEDriver_obj
     000005EE  _hUGE_mute_channel                 hUGEDriver_obj
     000005FB  _hUGE_set_position_banked          hUGEDriver_obj
     000005FF  _hUGE_set_position                 hUGEDriver_obj
     00000608  hUGE_init                          hUGEDriver_obj
     0000065E  hUGE_mute_channel                  hUGEDriver_obj
     00000854  hUGE_set_position                  hUGEDriver_obj
     000009BC  _hUGE_dosound                      hUGEDriver_obj
     000009BC  _hUGE_dosound_banked               hUGEDriver_obj
     000009BC  hUGE_dosound                       hUGEDriver_obj
     00000CAB  _get_vram_byte                     
     00000CB8  _get_win_tile_xy                   
     00000CC0  _get_bkg_tile_xy                   
     00000CE7  _set_sprite_palette                CGB
     00000CEC  _set_bkg_palette                   CGB
     00000CEF  .set_palette                       CGB
     00000D0E  _set_sprite_palette_entry          CGB
     00000D13  _set_bkg_palette_entry             CGB
     00000D16  .set_palette_entry                 CGB
     00000D32  _hide_sprites_range                Metasprites
     00000D62  .sgb_check                         
ASxxxx Linker V03.00 + NoICE + sdld,  page 26.
Hexadecimal  [32-Bits]

Area                                    Addr        Size        Decimal Bytes (Attributes)
--------------------------------        ----        ----        ------- ----- ------------
_CODE                               00000200    00000C51 =        3153. bytes (REL,CON)

      Value  Global                              Global Defined In Module
      -----  --------------------------------   ------------------------
     00000D62  _sgb_check                         
     00000DAA  _sgb_transfer                      
     00000DAF  .sgb_transfer                      
     00000DF0  ___move_metasprite                 Metasprites
     00000E2F  _cpu_slow                          CGB
     00000E4A  _cpu_fast                          CGB

ASxxxx Linker V03.00 + NoICE + sdld,  page 27.
Hexadecimal  [32-Bits]

Area                                    Addr        Size        Decimal Bytes (Attributes)
--------------------------------        ----        ----        ------- ----- ------------
_HEADER0                            00000000    00000001 =           1. bytes (ABS,CON)

      Value  Global                              Global Defined In Module
      -----  --------------------------------   ------------------------
     00000020  .call_hl                           Runtime

ASxxxx Linker V03.00 + NoICE + sdld,  page 28.
Hexadecimal  [32-Bits]

Area                                    Addr        Size        Decimal Bytes (Attributes)
--------------------------------        ----        ----        ------- ----- ------------
_HEADER1                            00000000    00000005 =           5. bytes (ABS,CON)

      Value  Global                              Global Defined In Module
      -----  --------------------------------   ------------------------
     00000028  .MemsetSmall                       Runtime

ASxxxx Linker V03.00 + NoICE + sdld,  page 29.
Hexadecimal  [32-Bits]

Area                                    Addr        Size        Decimal Bytes (Attributes)
--------------------------------        ----        ----        ------- ----- ------------
_HEADER2                            00000000    00000007 =           7. bytes (ABS,CON)

      Value  Global                              Global Defined In Module
      -----  --------------------------------   ------------------------
     00000030  .MemcpySmall                       Runtime

ASxxxx Linker V03.00 + NoICE + sdld,  page 30.
Hexadecimal  [32-Bits]

Area                                    Addr        Size        Decimal Bytes (Attributes)
--------------------------------        ----        ----        ------- ----- ------------
_HEADER3                            00000000    00000008 =           8. bytes (ABS,CON)

      Value  Global                              Global Defined In Module
      -----  --------------------------------   ------------------------
ASxxxx Linker V03.00 + NoICE + sdld,  page 31.
Hexadecimal  [32-Bits]

Area                                    Addr        Size        Decimal Bytes (Attributes)
--------------------------------        ----        ----        ------- ----- ------------
_HEADER4                            00000000    0000004E =          78. bytes (ABS,CON)

      Value  Global                              Global Defined In Module
      -----  --------------------------------   ------------------------
     00000080  .int                               Runtime
     0000008F  _wait_int_handler                  Runtime
     0000009C  __standard_VBL_handler             Runtime
     000000AC  _refresh_OAM                       Runtime

ASxxxx Linker V03.00 + NoICE + sdld,  page 32.
Hexadecimal  [32-Bits]

Area                                    Addr        Size        Decimal Bytes (Attributes)
--------------------------------        ----        ----        ------- ----- ------------
_HEADER5                            00000000    00000002 =           2. bytes (ABS,CON)

      Value  Global                              Global Defined In Module
      -----  --------------------------------   ------------------------
ASxxxx Linker V03.00 + NoICE + sdld,  page 33.
Hexadecimal  [32-Bits]

Area                                    Addr        Size        Decimal Bytes (Attributes)
--------------------------------        ----        ----        ------- ----- ------------
_HEADER6                            00000000    00000030 =          48. bytes (ABS,CON)

      Value  Global                              Global Defined In Module
      -----  --------------------------------   ------------------------
ASxxxx Linker V03.00 + NoICE + sdld,  page 34.
Hexadecimal  [32-Bits]

Area                                    Addr        Size        Decimal Bytes (Attributes)
--------------------------------        ----        ----        ------- ----- ------------
_HEADER7                            00000000    00000006 =           6. bytes (ABS,CON)

      Value  Global                              Global Defined In Module
      -----  --------------------------------   ------------------------
ASxxxx Linker V03.00 + NoICE + sdld,  page 35.
Hexadecimal  [32-Bits]

Area                                    Addr        Size        Decimal Bytes (Attributes)
--------------------------------        ----        ----        ------- ----- ------------
_HEADER8                            00000000    00000003 =           3. bytes (ABS,CON)

      Value  Global                              Global Defined In Module
      -----  --------------------------------   ------------------------
ASxxxx Linker V03.00 + NoICE + sdld,  page 36.
Hexadecimal  [32-Bits]

Area                                    Addr        Size        Decimal Bytes (Attributes)
--------------------------------        ----        ----        ------- ----- ------------
_HEADER9                            00000000    00000001 =           1. bytes (ABS,CON)

      Value  Global                              Global Defined In Module
      -----  --------------------------------   ------------------------
ASxxxx Linker V03.00 + NoICE + sdld,  page 37.
Hexadecimal  [32-Bits]

Area                                    Addr        Size        Decimal Bytes (Attributes)
--------------------------------        ----        ----        ------- ----- ------------
_HEADERa                            00000000    00000001 =           1. bytes (ABS,CON)

      Value  Global                              Global Defined In Module
      -----  --------------------------------   ------------------------
ASxxxx Linker V03.00 + NoICE + sdld,  page 38.
Hexadecimal  [32-Bits]

Area                                    Addr        Size        Decimal Bytes (Attributes)
--------------------------------        ----        ----        ------- ----- ------------
_HEADERb                            00000000    00000001 =           1. bytes (ABS,CON)

      Value  Global                              Global Defined In Module
      -----  --------------------------------   ------------------------
ASxxxx Linker V03.00 + NoICE + sdld,  page 39.
Hexadecimal  [32-Bits]

Area                                    Addr        Size        Decimal Bytes (Attributes)
--------------------------------        ----        ----        ------- ----- ------------
_HEADERc                            00000000    00000002 =           2. bytes (ABS,CON)

      Value  Global                              Global Defined In Module
      -----  --------------------------------   ------------------------
ASxxxx Linker V03.00 + NoICE + sdld,  page 40.
Hexadecimal  [32-Bits]

Area                                    Addr        Size        Decimal Bytes (Attributes)
--------------------------------        ----        ----        ------- ----- ------------
_HEADERd                            00000000    00000001 =           1. bytes (ABS,CON)

      Value  Global                              Global Defined In Module
      -----  --------------------------------   ------------------------
ASxxxx Linker V03.00 + NoICE + sdld,  page 41.
Hexadecimal  [32-Bits]

Area                                    Addr        Size        Decimal Bytes (Attributes)
--------------------------------        ----        ----        ------- ----- ------------
_HEADERe                            00000000    00000001 =           1. bytes (ABS,CON)

      Value  Global                              Global Defined In Module
      -----  --------------------------------   ------------------------
ASxxxx Linker V03.00 + NoICE + sdld,  page 42.
Hexadecimal  [32-Bits]

Area                                    Addr        Size        Decimal Bytes (Attributes)
--------------------------------        ----        ----        ------- ----- ------------
_HEADERf                            00000000    00000002 =           2. bytes (ABS,CON)

      Value  Global                              Global Defined In Module
      -----  --------------------------------   ------------------------
ASxxxx Linker V03.00 + NoICE + sdld,  page 43.
Hexadecimal  [32-Bits]

Area                                    Addr        Size        Decimal Bytes (Attributes)
--------------------------------        ----        ----        ------- ----- ------------
_HEADER10                           00000000    00000082 =         130. bytes (ABS,CON)

      Value  Global                              Global Defined In Module
      -----  --------------------------------   ------------------------
     00000150  .reset                             Runtime
     00000150  _reset                             Runtime
     00000157  .code_start                        Runtime
     000001B7  _exit                              Runtime
     000001BB  _set_interrupts                    Runtime

ASxxxx Linker V03.00 + NoICE + sdld,  page 44.
Hexadecimal  [32-Bits]

Area                                    Addr        Size        Decimal Bytes (Attributes)
--------------------------------        ----        ----        ------- ----- ------------
_HEADER11                           00000000    00000001 =           1. bytes (ABS,CON)

      Value  Global                              Global Defined In Module
      -----  --------------------------------   ------------------------
ASxxxx Linker V03.00 + NoICE + sdld,  page 45.
Hexadecimal  [32-Bits]

Area                                    Addr        Size        Decimal Bytes (Attributes)
--------------------------------        ----        ----        ------- ----- ------------
_HOME                               00000E51    00002CDF =       11487. bytes (REL,CON)

      Value  Global                              Global Defined In Module
      -----  --------------------------------   ------------------------
     00000E51  .memset_simple                     Runtime
     00000E5A  .memcpy_simple                     Runtime
     00000E77  .remove_VBL                        Runtime
     00000E7A  .remove_int                        Runtime
     00000E97  .add_VBL                           Runtime
     00000E9A  .add_int                           Runtime
     00000EA5  .wait_vbl_done                     Runtime
     00000EA5  _wait_vbl_done                     Runtime
     00000EB5  .display_off                       Runtime
     00000EB5  _display_off                       Runtime
     00000ECD  _remove_VBL                        Runtime
     00000ED8  _add_VBL                           Runtime
     00000EE3  _actors_update                     actor
     000012EC  _SetBankedBkgData                  bankdata
     00001308  _SetBankedSpriteData               bankdata
     00001324  _SetBankedBkgTiles                 bankdata
     00001340  _SetBankedWinTiles                 bankdata
     0000135C  _ReadBankedFarPtr                  bankdata
     00001383  _ReadBankedUWORD                   bankdata
     0000139F  _MemcpyBanked                      bankdata
     000013BB  _MemcpyVRAMBanked                  bankdata
     000013D7  _IndexOfFarPtr                     bankdata
     0000146D  _camera_update                     camera
     000015A0  _load_animations                   data_manager
     000015FF  _events_update                     events
     000016D1  _timers_update                     events
     00001759  _input_update                      input
     0000178B  .sio_ISR                           
     000017E5  .timer_ISR                         
     000017FA  _simple_LCD_isr                    interrupts
     00001876  _fullscreen_LCD_isr                interrupts
     000018A2  _VBL_isr                           interrupts
     000018EC  _isqrt                             math
     00001942  _sine_wave                         math
     00001A42  _dir_lookup                        math
     00001A4A  _dir_angle_lookup                  math
     00001A4E  _hUGETrackerRoutine                music_manager
     00001A7A  _music_events_update               music_manager
     00001AFC  _music_play_isr                    music_manager
     00001BA2  _parallax_LCD_isr                  parallax
     00001BDF  _projectiles_update                projectiles
     0000207E  _projectiles_render                projectiles
     000021F1  _scroll_load_pending_row           scroll
     0000227D  _scroll_load_row                   scroll
     000022F7  _scroll_load_col                   scroll
     00002362  _scroll_load_pending_col           scroll
     000023F3  _set_bkg_submap                    
     00002436  _set_xy_win_submap                 
     00002463  .set_xy_win_submap                 
     0000246C  .set_xy_bkg_submap                 
ASxxxx Linker V03.00 + NoICE + sdld,  page 46.
Hexadecimal  [32-Bits]

Area                                    Addr        Size        Decimal Bytes (Attributes)
--------------------------------        ----        ----        ------- ----- ------------
_HOME                               00000E51    00002CDF =       11487. bytes (REL,CON)

      Value  Global                              Global Defined In Module
      -----  --------------------------------   ------------------------
     0000247B  .set_xy_submap                     
     000024C1  _sfx_play_isr                      sfx_player
     00002594  _on_SIO_receive                    sio
     000025D5  _SIO_update                        sio
     0000263C  _ui_update                         ui
     0000276B  _vm_sgb_transfer                   vm_sgb
     000027B9  _vm_load_text                      vm_ui
     00002A0E  _vm_switch                         vm
     00002B11  _vm_beginthread                    vm
     00002C36  _vm_rpn                            vm
     00003378  _vm_get_far                        vm
     000033E2  _vm_call_native                    vm
     000033F5  _VM_STEP                           vm
     00003463  _script_runner_update              vm
     000035CE  _fill_win_rect                     
     000035E0  _rand                              
     000035E0  _randw                             
     0000360B  _initrand                          
     0000360D  .initrand                          
     00003616  _get_bkg_data                      
     00003616  _get_win_data                      
     00003663  _get_sprite_data                   
     00003693  __mulsuchar                        mul
     0000369D  __muluschar                        mul
     000036A7  __mulschar                         mul
     000036B9  __muluchar                         mul
     000036C5  __mulint                           mul
     000036EB  _abs                               abs
     000036FA  _set_win_tiles                     
     0000370E  _set_tile_data                     
     00003713  _set_bkg_data                      
     00003713  _set_win_data                      
     0000371B  _set_sprite_data                   
     0000374B  _reverse                           reverse
     0000377F  ___call__banked                    far_ptr
     0000379C  _to_far_ptr                        far_ptr
     000037D5  _add_LCD                           
     000037E0  .add_LCD                           
     000037E6  _remove_LCD                        
     000037F1  .remove_LCD                        
     000037F7  .fill_rect_wtt                     
     00003800  .fill_rect_btt                     
     0000384D  _joypad_init                       
     0000389B  _joypad_ex                         
     000038A0  .joypad_ex                         
     000038EB  .copy_vram                         
     000038FF  _get_data                          
     000038FF  _set_data                          
     000038FF  _vmemcpy                           
     00003912  _fill_bkg_rect                     
     00003924  ___sdcc_call_hl                    call_hl
ASxxxx Linker V03.00 + NoICE + sdld,  page 47.
Hexadecimal  [32-Bits]

Area                                    Addr        Size        Decimal Bytes (Attributes)
--------------------------------        ----        ----        ------- ----- ------------
_HOME                               00000E51    00002CDF =       11487. bytes (REL,CON)

      Value  Global                              Global Defined In Module
      -----  --------------------------------   ------------------------
     00003925  ___memcpy                          memcpy
     00003925  _memcpy                            memcpy
     00003968  _memset                            memset
     0000399B  .set_xy_wtt                        SetTileMap
     000039A4  .set_xy_btt                        SetTileMap
     000039B3  .set_xy_tt                         SetTileMap
     000039F5  __divsuchar                        div
     00003A02  __modsuchar                        div
     00003A0C  __divuschar                        div
     00003A1E  __moduschar                        div
     00003A2E  __divschar                         div
     00003A3A  __modschar                         div
     00003A44  __divsint                          div
     00003A55  __modsint                          div
     00003A64  __divuchar                         div
     00003A70  __moduchar                         div
     00003A7A  __divuint                          div
     00003A8B  __moduint                          div
     00003A9A  .div8                              div
     00003A9A  .mod8                              div
     00003AA2  .div16                             div
     00003AA2  .mod16                             div
     00003AD8  .divu8                             div
     00003AD8  .modu8                             div
     00003ADB  .divu16                            div
     00003ADB  .modu16                            div
     00003B1C  _set_bkg_tiles                     

ASxxxx Linker V03.00 + NoICE + sdld,  page 48.
Hexadecimal  [32-Bits]

Area                                    Addr        Size        Decimal Bytes (Attributes)
--------------------------------        ----        ----        ------- ----- ------------
_INITIALIZER                        00003B30    00000019 =          25. bytes (REL,CON)

      Value  Global                              Global Defined In Module
      -----  --------------------------------   ------------------------
ASxxxx Linker V03.00 + NoICE + sdld,  page 49.
Hexadecimal  [32-Bits]

Area                                    Addr        Size        Decimal Bytes (Attributes)
--------------------------------        ----        ----        ------- ----- ------------
_GSINIT                             00003B49    00000027 =          39. bytes (REL,CON)

      Value  Global                              Global Defined In Module
      -----  --------------------------------   ------------------------
     00003B49  gsinit                             Runtime

ASxxxx Linker V03.00 + NoICE + sdld,  page 50.
Hexadecimal  [32-Bits]

Area                                    Addr        Size        Decimal Bytes (Attributes)
--------------------------------        ----        ----        ------- ----- ------------
_GSFINAL                            00003B70    00000001 =           1. bytes (REL,CON)

      Value  Global                              Global Defined In Module
      -----  --------------------------------   ------------------------
ASxxxx Linker V03.00 + NoICE + sdld,  page 51.
Hexadecimal  [32-Bits]

Area                                    Addr        Size        Decimal Bytes (Attributes)
--------------------------------        ----        ----        ------- ----- ------------
_DATA                               0000C0A0    0000197F =        6527. bytes (REL,CON)

      Value  Global                              Global Defined In Module
      -----  --------------------------------   ------------------------
     0000C0A0  __cpu                              Runtime
     0000C0A1  __is_GBA                           Runtime
     0000C0A2  .mode                              Runtime
     0000C0A3  .sys_time                          Runtime
     0000C0A3  _sys_time                          Runtime
     0000C0A5  .int_0x40                          Runtime
     0000C0B9  _actors                            actor
     0000C4FD  _actors_active_head                actor
     0000C4FF  _actors_active_tail                actor
     0000C501  _actors_inactive_head              actor
     0000C503  _screen_x                          actor
     0000C504  _screen_y                          actor
     0000C505  _invalid                           actor
     0000C507  _player_moving                     actor
     0000C508  _player_iframes                    actor
     0000C509  _player_collision_actor            actor
     0000C50B  _emote_actor                       actor
     0000C50D  _emote_timer                       actor
     0000C50E  _allocated_hardware_sprites        actor
     0000C51A  _camera_x                          camera
     0000C51C  _camera_y                          camera
     0000C51E  _camera_offset_x                   camera
     0000C51F  _camera_offset_y                   camera
     0000C520  _camera_deadzone_x                 camera
     0000C521  _camera_deadzone_y                 camera
     0000C522  _camera_settings                   camera
     0000C526  _current_scene                     data_manager
     0000C529  _image_bank                        data_manager
     0000C52A  _image_ptr                         data_manager
     0000C52C  _image_attr_bank                   data_manager
     0000C52D  _image_attr_ptr                    data_manager
     0000C52F  _collision_bank                    data_manager
     0000C530  _collision_ptr                     data_manager
     0000C532  _image_tile_width                  data_manager
     0000C533  _image_tile_height                 data_manager
     0000C534  _image_width                       data_manager
     0000C536  _image_height                      data_manager
     0000C538  _sprites_len                       data_manager
     0000C539  _actors_len                        data_manager
     0000C53A  _projectiles_len                   data_manager
     0000C53B  _player_sprite_len                 data_manager
     0000C53C  _scene_type                        data_manager
     0000C53D  _scene_LCD_type                    data_manager
     0000C53E  _scene_stack                       data_manager
     0000C57E  _scene_stack_ptr                   data_manager
     0000C580  _scene_sprites_base_tiles          data_manager
     0000C5C0  _input_events                      events
     0000C5E8  _input_slots                       events
     0000C5F0  _timer_events                      events
     0000C604  _timer_values                      events
ASxxxx Linker V03.00 + NoICE + sdld,  page 52.
Hexadecimal  [32-Bits]

Area                                    Addr        Size        Decimal Bytes (Attributes)
--------------------------------        ----        ----        ------- ----- ------------
_DATA                               0000C0A0    0000197F =        6527. bytes (REL,CON)

      Value  Global                              Global Defined In Module
      -----  --------------------------------   ------------------------
     0000C60C  _fade_running                      fade_manager
     0000C60D  _fade_frames_per_step              fade_manager
     0000C60E  _fade_timer                        fade_manager
     0000C616  _joypads                           input
     0000C61B  _frame_joy                         input
     0000C61C  _last_joy                          input
     0000C61D  _recent_joy                        input
     0000C61E  _SIO_status                        
     0000C61F  _link_byte_sent                    
     0000C620  _link_next_mode                    
     0000C621  _save_blob_size                    load_save
     0000C623  _routine_queue                     music_manager
     0000C627  _routine_queue_head                music_manager
     0000C628  _routine_queue_tail                music_manager
     0000C629  _music_events                      music_manager
     0000C63D  _music_current_track_bank          music_manager
     0000C63E  _music_mute_flag                   music_manager
     0000C63F  _music_mute_mask                   music_manager
     0000C640  _music_next_track                  music_manager
     0000C642  _music_current_track               music_manager
     0000C644  _music_play_isr_counter            music_manager
     0000C645  _music_play_isr_pause              music_manager
     0000C646  _music_global_mute_mask            music_manager
     0000C647  _music_sfx_priority                music_manager
     0000C648  _DMG_palette                       palette
     0000C64B  _SprPalette                        palette
     0000C68B  _parallax_rows                     parallax
     0000C69D  _parallax_row                      parallax
     0000C69F  _projectiles                       projectiles
     0000C758  _projectile_defs                   projectiles
     0000C7CB  _projectiles_active_head           projectiles
     0000C7CD  _projectiles_inactive_head         projectiles
     0000C7D4  _scroll_x                          scroll
     0000C7D6  _scroll_y                          scroll
     0000C7D8  _draw_scroll_x                     scroll
     0000C7DA  _draw_scroll_y                     scroll
     0000C7DC  _scroll_x_max                      scroll
     0000C7DE  _scroll_y_max                      scroll
     0000C7E0  _scroll_offset_x                   scroll
     0000C7E1  _scroll_offset_y                   scroll
     0000C7E2  _pending_h_x                       scroll
     0000C7E3  _pending_h_y                       scroll
     0000C7E4  _pending_h_i                       scroll
     0000C7E5  _pending_w_x                       scroll
     0000C7E6  _pending_w_y                       scroll
     0000C7E7  _pending_w_i                       scroll
     0000C7E8  _current_row                       scroll
     0000C7EA  _new_row                           scroll
     0000C7EC  _current_col                       scroll
     0000C7EE  _new_col                           scroll
     0000C7F0  .image_tile_width                  
ASxxxx Linker V03.00 + NoICE + sdld,  page 53.
Hexadecimal  [32-Bits]

Area                                    Addr        Size        Decimal Bytes (Attributes)
--------------------------------        ----        ----        ------- ----- ------------
_DATA                               0000C0A0    0000197F =        6527. bytes (REL,CON)

      Value  Global                              Global Defined In Module
      -----  --------------------------------   ------------------------
     0000C7F1  _sfx_play_bank                     sfx_player
     0000C7F2  _sfx_play_sample                   sfx_player
     0000C7F4  _sfx_frame_skip                    sfx_player
     0000C7F5  _link_operation_mode               sio
     0000C7F6  _link_packet                       sio
     0000C816  _link_packet_len                   sio
     0000C817  _link_packet_ptr                   sio
     0000C819  _link_packet_received              sio
     0000C81A  _link_packet_snd_len               sio
     0000C81B  _link_packet_snd_ptr               sio
     0000C81D  _link_packet_sent                  sio
     0000C81E  __is_CGB                           system
     0000C81F  __is_SGB                           system
     0000C820  __current_ram_bank                 system
     0000C821  _triggers                          trigger
     0000C919  _last_trigger_tx                   trigger
     0000C91A  _last_trigger_ty                   trigger
     0000C91B  _last_trigger                      trigger
     0000C91C  _win_pos_x                         ui
     0000C91D  _win_dest_pos_x                    ui
     0000C91E  _win_pos_y                         ui
     0000C91F  _win_dest_pos_y                    ui
     0000C920  _win_speed                         ui
     0000C921  _text_drawn                        ui
     0000C922  _current_text_speed                ui
     0000C923  _text_wait                         ui
     0000C924  _text_options                      ui
     0000C925  _text_in_speed                     ui
     0000C926  _text_out_speed                    ui
     0000C927  _text_draw_speed                   ui
     0000C928  _text_ff_joypad                    ui
     0000C929  _text_ff                           ui
     0000C92A  _text_bkg_fill                     ui
     0000C92B  _ui_text_data                      ui
     0000CA35  _vwf_current_mask                  ui
     0000CA36  _vwf_current_rotate                ui
     0000CA37  _vwf_inverse_map                   ui
     0000CA38  _vwf_direction                     ui
     0000CA39  _vwf_current_font_desc             ui
     0000CA41  _vwf_current_font_bank             ui
     0000CA42  _vwf_current_font_idx              ui
     0000CA43  _text_render_base_addr             ui
     0000CA45  _text_scroll_addr                  ui
     0000CA47  _text_scroll_width                 ui
     0000CA48  _text_scroll_height                ui
     0000CA49  _text_scroll_fill                  ui
     0000CA4A  _text_sound_mask                   ui
     0000CA4B  _text_sound_bank                   ui
     0000CA4C  _text_sound_data                   ui
     0000CA4E  _overlay_priority                  ui
     0000CA55  __itoa_fmt_len                     vm_ui_a
ASxxxx Linker V03.00 + NoICE + sdld,  page 54.
Hexadecimal  [32-Bits]

Area                                    Addr        Size        Decimal Bytes (Attributes)
--------------------------------        ----        ----        ------- ----- ------------
_DATA                               0000C0A0    0000197F =        6527. bytes (REL,CON)

      Value  Global                              Global Defined In Module
      -----  --------------------------------   ------------------------
     0000CA56  .itoa_fmt_buf                      vm_ui_a
     0000CA59  _CTXS                              vm
     0000CB89  _first_ctx                         vm
     0000CB8B  _free_ctxs                         vm
     0000CB8D  _old_executing_ctx                 vm
     0000CB8F  _executing_ctx                     vm
     0000CB91  _vm_lock_state                     vm
     0000CB92  _vm_loaded_state                   vm
     0000CB93  _vm_exception_code                 vm
     0000CB94  _vm_exception_params_length        vm
     0000CB95  _vm_exception_params_bank          vm
     0000CB96  _vm_exception_params_offset        vm
     0000CB99  _script_memory                     vm
     0000D99F  _grounded                          platform
     0000D9A0  _on_ladder                         platform
     0000D9A1  _pl_vel_x                          platform
     0000D9A3  _pl_vel_y                          platform
     0000D9A5  _plat_min_vel                      platform
     0000D9A7  _plat_walk_vel                     platform
     0000D9A9  _plat_climb_vel                    platform
     0000D9AB  _plat_run_vel                      platform
     0000D9AD  _plat_walk_acc                     platform
     0000D9AF  _plat_run_acc                      platform
     0000D9B1  _plat_dec                          platform
     0000D9B3  _plat_jump_vel                     platform
     0000D9B5  _plat_grav                         platform
     0000D9B7  _plat_hold_grav                    platform
     0000D9B9  _plat_max_fall_vel                 platform
     0000D9BB  _shooter_reached_end               shmup
     0000D9BC  _shooter_dest                      shmup
     0000D9BE  _shooter_direction                 shmup
     0000D9BF  _topdown_grid                      topdown
     0000D9C0  ___rand_seed                       
     0000D9DE  _hUGE_current_wave                 hUGEDriver_obj
     0000D9DE  hUGE_current_wave                  hUGEDriver_obj
     0000D9DF  _hUGE_mute_mask                    hUGEDriver_obj
     0000DA08  ___call_banked_addr                far_ptr
     0000DA08  ___call_banked_ptr                 far_ptr
     0000DA0A  ___call_banked_bank                far_ptr
     0000DA0C  .int_0x48                          
     0000DA1C  ___current_metasprite              Metasprites
     0000DA1E  ___current_base_tile               Metasprites

ASxxxx Linker V03.00 + NoICE + sdld,  page 55.
Hexadecimal  [32-Bits]

Area                                    Addr        Size        Decimal Bytes (Attributes)
--------------------------------        ----        ----        ------- ----- ------------
_INITIALIZED                        0000DA1F    00000019 =          25. bytes (REL,CON)

      Value  Global                              Global Defined In Module
      -----  --------------------------------   ------------------------
     0000DA1F  _fade_style                        fade_manager
     0000DA20  _game_time                         game_time
     0000DA21  _PRN_PKT_START                     gbprinter
     0000DA2F  _hide_sprites                      interrupts
     0000DA30  _show_actors_on_overlay            interrupts
     0000DA31  _overlay_cut_scanline              interrupts
     0000DA32  _triggers_len                      trigger
     0000DA33  _exchange_state                    vm_sio
     0000DA34  _last_hit_trigger                  pointnclick
     0000DA35  _shooter_scroll_speed              shmup
     0000DA36  ___render_shadow_OAM               Metasprites
     0000DA37  __map_tile_offset                  SetTileMap
ASxxxx Linker V03.00 + NoICE + sdld,  page 56.
Hexadecimal  [32-Bits]

Area                                    Addr        Size        Decimal Bytes (Attributes)
--------------------------------        ----        ----        ------- ----- ------------
_HRAM12                             00000000    00000003 =           3. bytes (ABS,CON)

      Value  Global                              Global Defined In Module
      -----  --------------------------------   ------------------------
     0000FF90  __current_bank                     Runtime
     0000FF92  __shadow_OAM_base                  Runtime

ASxxxx Linker V03.00 + NoICE + sdld,  page 57.
Hexadecimal  [32-Bits]

Area                                    Addr        Size        Decimal Bytes (Attributes)
--------------------------------        ----        ----        ------- ----- ------------
_EHL_TRAMPOLINE0                    00000000    00000011 =          17. bytes (ABS,CON)

      Value  Global                              Global Defined In Module
      -----  --------------------------------   ------------------------
     00000008  ___sdcc_bcall_ehl                  

ASxxxx Linker V03.00 + NoICE + sdld,  page 58.
Hexadecimal  [32-Bits]

Area                                    Addr        Size        Decimal Bytes (Attributes)
--------------------------------        ----        ----        ------- ----- ------------
_CODE_1                             00014000    00004000 =       16384. bytes (REL,CON)

      Value  Global                              Global Defined In Module
      -----  --------------------------------   ------------------------
     00014000  ___func_ACTOR                      actor
     00014000  _actors_init                       actor
     0001403A  _emote_offsets                     actor
     00014049  _emote_metasprite                  actor
     00014055  _player_init                       actor
     0001406A  _deactivate_actor                  actor
     000141DB  _activate_actor                    actor
     0001431A  _activate_actors_in_row            actor
     00014411  _activate_actors_in_col            actor
     00014562  _actor_set_frames                  actor
     000145B6  _actor_set_frame_offset            actor
     000145F3  _actor_get_frame_offset            actor
     00014606  _actor_set_anim_idle               actor
     00014634  _actor_set_anim_moving             actor
     00014665  _actor_set_dir                     actor
     000146CA  _actor_at_tile                     actor
     000147A0  _actor_in_front_of_player          actor
     00014887  _actor_overlapping_player          actor
     00014B20  _actor_overlapping_bb              actor
     00014D3F  _actors_handle_player_collision    actor
     00014DCA  _check_collision_in_direction      actor
     000155BA  _ui_swap_tiles                     
     00015604  _ui_print_make_mask_lr             
     00015620  _ui_print_make_mask_rl             
     0001563C  _ui_init                           ui
     0001570B  _ui_load_tiles                     ui
     00015762  _ui_draw_frame                     ui
     000157F6  _ui_print_reset                    ui
     0001584C  _ui_set_start_tile                 ui
     00015878  _ui_print_render                   ui
     00015B19  _ui_draw_text_buffer_char          ui
     0001600D  _ui_run_menu                       ui
     000162CB  _ui_run_modal                      ui
     0001639A  ___func_VM_PALETTE                 vm_palette
     0001639A  _vm_load_palette                   vm_palette
     00016591  ___func_VM_SGB                     vm_sgb
     00016591  _scene_dev_room_init               scene_dev_room_init
     000165C4  ___func_sound_item_get_wav         sound_item_get_wav
     000165C4  _sound_item_get_wav                sound_item_get_wav
ASxxxx Linker V03.00 + NoICE + sdld,  page 59.
Hexadecimal  [32-Bits]

Area                                    Addr        Size        Decimal Bytes (Attributes)
--------------------------------        ----        ----        ------- ----- ------------
_CODE_22                            00164000    00001539 =        5433. bytes (REL,CON)

      Value  Global                              Global Defined In Module
      -----  --------------------------------   ------------------------
     00164000  _bootstrap_script                  
     0016400B  _camera_init                       camera
     00164029  _camera_reset                      camera
     00164039  _input_init                        input
     00164064  _remove_LCD_ISRs                   interrupts
     00164085  _parallax_init                     parallax
     001640A9  _SIO_init                          sio
     001640D2  _actor_14_interact                 actor_14_interact
     001640FF  _actor_21_interact                 actor_21_interact
     00164125  _actor_25_interact                 actor_25_interact
     0016414C  _actor_26_interact                 actor_26_interact
     00164178  _actor_27_interact                 actor_27_interact
     001641A4  _actor_30_interact                 actor_30_interact
     001641D0  _actor_33_interact                 actor_33_interact
     001641F6  _actor_37_interact                 actor_37_interact
     0016421F  _actor_43_interact                 actor_43_interact
     00164250  _actor_8_interact                  actor_8_interact
     00164281  _actor_blue_interact               actor_blue_interact
     001642B0  _actor_blue_number_screen_intera   actor_blue_number_screen_int
     001642DF  _actor_comments_interact           actor_comments_interact
     001642E1  _actor_green_number_screen_inter   actor_green_number_screen_in
     00164310  _actor_red_interact                actor_red_interact
     0016433F  _actor_red_number_screen_interac   actor_red_number_screen_inte
     0016436E  _actor_yellow_interact             actor_yellow_interact
     0016439D  _actor_yellow_number_screen_inte   actor_yellow_number_screen_i
     001643CC  ___func_bg_barrens_docksgb         bg_barrens_docksgb
     001643CC  _bg_barrens_docksgb                bg_barrens_docksgb
     001643DA  ___func_bg_bathroomnew             bg_bathroomnew
     001643DA  _bg_bathroomnew                    bg_bathroomnew
     001643E8  ___func_bg_gb_switch_jul162021     bg_gb_switch_jul162021
     001643E8  _bg_gb_switch_jul162021            bg_gb_switch_jul162021
     001643F6  ___func_bg_input_password_screen   bg_input_password_screen_v2
     001643F6  _bg_input_password_screen_v2       bg_input_password_screen_v2
     00164404  ___func_bg_input_password_screen   bg_input_password_screen
     00164404  _bg_input_password_screen          bg_input_password_screen
     00164412  ___func_bg_inv_sys_2               bg_inv_sys_2
     00164412  _bg_inv_sys_2                      bg_inv_sys_2
     00164420  ___func_bg_louis_endscreen         bg_louis_endscreen
     00164420  _bg_louis_endscreen                bg_louis_endscreen
     0016442E  ___func_bg_menus_newinvmenu        bg_menus_newinvmenu
     0016442E  _bg_menus_newinvmenu               bg_menus_newinvmenu
     0016443C  ___func_bg_new_folder_wip_baseme   bg_new_folder_wip_basement__
     0016443C  _bg_new_folder_wip_basement__1     bg_new_folder_wip_basement__
     0016444A  ___func_bg_new_folder_wip_baseme   bg_new_folder_wip_basement__
     0016444A  _bg_new_folder_wip_basement__2     bg_new_folder_wip_basement__
     00164458  ___func_bg_new_folder_wip_baseme   bg_new_folder_wip_basement_
     00164458  _bg_new_folder_wip_basement_       bg_new_folder_wip_basement_
     00164466  ___func_bg_normal_gb_optimized     bg_normal_gb_optimized
     00164466  _bg_normal_gb_optimized            bg_normal_gb_optimized
     00164474  ___func_bg_normal_gbc              bg_normal_gbc
ASxxxx Linker V03.00 + NoICE + sdld,  page 60.
Hexadecimal  [32-Bits]

Area                                    Addr        Size        Decimal Bytes (Attributes)
--------------------------------        ----        ----        ------- ----- ------------
_CODE_22                            00164000    00001539 =        5433. bytes (REL,CON)

      Value  Global                              Global Defined In Module
      -----  --------------------------------   ------------------------
     00164474  _bg_normal_gbc                     bg_normal_gbc
     00164482  ___func_bg_pictures_b0_2_gbc       bg_pictures_b0_2_gbc
     00164482  _bg_pictures_b0_2_gbc              bg_pictures_b0_2_gbc
     00164490  ___func_bg_pictures_b0_2           bg_pictures_b0_2
     00164490  _bg_pictures_b0_2                  bg_pictures_b0_2
     0016449E  ___func_bg_pictures_b3_gb_alt      bg_pictures_b3_gb_alt
     0016449E  _bg_pictures_b3_gb_alt             bg_pictures_b3_gb_alt
     001644AC  ___func_bg_pictures_b3_gbc_alt     bg_pictures_b3_gbc_alt
     001644AC  _bg_pictures_b3_gbc_alt            bg_pictures_b3_gbc_alt
     001644BA  ___func_bg_pictures_b4_gb_alt      bg_pictures_b4_gb_alt
     001644BA  _bg_pictures_b4_gb_alt             bg_pictures_b4_gb_alt
     001644C8  ___func_bg_pictures_b4_gbc_alt     bg_pictures_b4_gbc_alt
     001644C8  _bg_pictures_b4_gbc_alt            bg_pictures_b4_gbc_alt
     001644D6  ___func_bg_pictures_b5_gb_alt      bg_pictures_b5_gb_alt
     001644D6  _bg_pictures_b5_gb_alt             bg_pictures_b5_gb_alt
     001644E4  ___func_bg_pictures_b5_gbc_alt     bg_pictures_b5_gbc_alt
     001644E4  _bg_pictures_b5_gbc_alt            bg_pictures_b5_gbc_alt
     001644F2  ___func_bg_pictures_b6_gb_alt      bg_pictures_b6_gb_alt
     001644F2  _bg_pictures_b6_gb_alt             bg_pictures_b6_gb_alt
     00164500  ___func_bg_pictures_b6_gbc_alt     bg_pictures_b6_gbc_alt
     00164500  _bg_pictures_b6_gbc_alt            bg_pictures_b6_gbc_alt
     0016450E  ___func_bg_pictures_b7_gb_alt      bg_pictures_b7_gb_alt
     0016450E  _bg_pictures_b7_gb_alt             bg_pictures_b7_gb_alt
     0016451C  ___func_bg_pictures_b7_gbc_alt     bg_pictures_b7_gbc_alt
     0016451C  _bg_pictures_b7_gbc_alt            bg_pictures_b7_gbc_alt
     0016452A  ___func_bg_pictures_b8_gb_alt      bg_pictures_b8_gb_alt
     0016452A  _bg_pictures_b8_gb_alt             bg_pictures_b8_gb_alt
     00164538  ___func_bg_pictures_b8_gbc_alt     bg_pictures_b8_gbc_alt
     00164538  _bg_pictures_b8_gbc_alt            bg_pictures_b8_gbc_alt
     00164546  ___func_bg_pictures_b9_gb_alt      bg_pictures_b9_gb_alt
     00164546  _bg_pictures_b9_gb_alt             bg_pictures_b9_gb_alt
     00164554  ___func_bg_pictures_cg_desktop_n   bg_pictures_cg_desktop_no_e_
     00164554  _bg_pictures_cg_desktop_no_e_12    bg_pictures_cg_desktop_no_e_
     00164562  ___func_bg_pictures_cg_desktop_n   bg_pictures_cg_desktop_no_e_
     00164562  _bg_pictures_cg_desktop_no_e_13    bg_pictures_cg_desktop_no_e_
     00164570  ___func_bg_pictures_cg_door1_gb    bg_pictures_cg_door1_gb
     00164570  _bg_pictures_cg_door1_gb           bg_pictures_cg_door1_gb
     0016457E  ___func_bg_pictures_cg_door2_gb    bg_pictures_cg_door2_gb
     0016457E  _bg_pictures_cg_door2_gb           bg_pictures_cg_door2_gb
     0016458C  ___func_bg_pictures_cg_wake1_gb    bg_pictures_cg_wake1_gb
     0016458C  _bg_pictures_cg_wake1_gb           bg_pictures_cg_wake1_gb
     0016459A  ___func_bg_pictures_cg_wake1_gbc   bg_pictures_cg_wake1_gbc
     0016459A  _bg_pictures_cg_wake1_gbc          bg_pictures_cg_wake1_gbc
     001645A8  ___func_bg_pictures_cg_wake2_gb    bg_pictures_cg_wake2_gb
     001645A8  _bg_pictures_cg_wake2_gb           bg_pictures_cg_wake2_gb
     001645B6  ___func_bg_pictures_cg_wake2_gbc   bg_pictures_cg_wake2_gbc
     001645B6  _bg_pictures_cg_wake2_gbc          bg_pictures_cg_wake2_gbc
     001645C4  ___func_bg_pictures_cg_wake3_gb    bg_pictures_cg_wake3_gb
     001645C4  _bg_pictures_cg_wake3_gb           bg_pictures_cg_wake3_gb
     001645D2  ___func_bg_pictures_cg_wake3_gbc   bg_pictures_cg_wake3_gbc
     001645D2  _bg_pictures_cg_wake3_gbc          bg_pictures_cg_wake3_gbc
ASxxxx Linker V03.00 + NoICE + sdld,  page 61.
Hexadecimal  [32-Bits]

Area                                    Addr        Size        Decimal Bytes (Attributes)
--------------------------------        ----        ----        ------- ----- ------------
_CODE_22                            00164000    00001539 =        5433. bytes (REL,CON)

      Value  Global                              Global Defined In Module
      -----  --------------------------------   ------------------------
     001645E0  ___func_bg_pictures_cg_wake4_gb    bg_pictures_cg_wake4_gb
     001645E0  _bg_pictures_cg_wake4_gb           bg_pictures_cg_wake4_gb
     001645EE  ___func_bg_pictures_cg_wake4_gbc   bg_pictures_cg_wake4_gbc
     001645EE  _bg_pictures_cg_wake4_gbc          bg_pictures_cg_wake4_gbc
     001645FC  ___func_bg_pictures_cg_wake5_gb    bg_pictures_cg_wake5_gb
     001645FC  _bg_pictures_cg_wake5_gb           bg_pictures_cg_wake5_gb
     0016460A  ___func_bg_pictures_cg_wake5_gbc   bg_pictures_cg_wake5_gbc
     0016460A  _bg_pictures_cg_wake5_gbc          bg_pictures_cg_wake5_gbc
     00164618  ___func_bg_placeholder             bg_placeholder
     00164618  _bg_placeholder                    bg_placeholder
     00164626  ___func_bg_startinghome_livingro   bg_startinghome_livingroomg
     00164626  _bg_startinghome_livingroomg       bg_startinghome_livingroomg
     00164634  ___func_bg_startinghome_startgb    bg_startinghome_startgb
     00164634  _bg_startinghome_startgb           bg_startinghome_startgb
     00164642  ___func_cursor_image               cursor_image
     00164642  _cursor_image                      cursor_image
     00164652  _scene_b0_2_gbc_init               scene_b0_2_gbc_init
     00164680  _scene_b0_2_init                   scene_b0_2_init
     001646AE  _scene_b3_gbc_init                 scene_b3_gbc_init
     001646DF  _scene_b3_init                     scene_b3_init
     00164710  _scene_b4_gbc_init                 scene_b4_gbc_init
     00164741  _scene_b4_init                     scene_b4_init
     00164772  _scene_b5_gbc_init                 scene_b5_gbc_init
     001647A3  _scene_b5_init                     scene_b5_init
     001647D4  _scene_b6_gbc_init                 scene_b6_gbc_init
     00164805  _scene_b6_init                     scene_b6_init
     00164836  _scene_b7_gbc_init                 scene_b7_gbc_init
     00164867  _scene_b7_init                     scene_b7_init
     00164898  _scene_b8_gbc_init                 scene_b8_gbc_init
     001648C9  _scene_b8_init                     scene_b8_init
     001648FA  ___func_scene_basement_light_tri   scene_basement_light_trigger
     001648FA  _scene_basement_light_triggers     scene_basement_light_trigger
     00164902  ___func_scene_basement_no_light_   scene_basement_no_light_spri
     00164902  _scene_basement_no_light_sprites   scene_basement_no_light_spri
     00164905  ___func_scene_basement_no_light_   scene_basement_no_light_trig
     00164905  _scene_basement_no_light_trigger   scene_basement_no_light_trig
     0016490D  ___func_scene_basement_stairs_ol   scene_basement_stairs_old_sp
     0016490D  _scene_basement_stairs_old_sprit   scene_basement_stairs_old_sp
     00164910  ___func_scene_basement_stairs_sp   scene_basement_stairs_sprite
     00164910  _scene_basement_stairs_sprites     scene_basement_stairs_sprite
     00164913  ___func_scene_basement_stairs_tr   scene_basement_stairs_trigge
     00164913  _scene_basement_stairs_triggers    scene_basement_stairs_trigge
     0016492B  ___func_scene_basement_stairs_wi   scene_basement_stairs_with__
     0016492B  _scene_basement_stairs_with__tri   scene_basement_stairs_with__
     00164953  _scene_cg_wake_1_init              scene_cg_wake_1_init
     00164979  _scene_cg_wake_2_init              scene_cg_wake_2_init
     0016499F  _scene_cg_wake_3_init              scene_cg_wake_3_init
     001649C5  _scene_cg_wake_4_init              scene_cg_wake_4_init
     001649EB  _scene_cg_wake_5_init              scene_cg_wake_5_init
     00164A11  _scene_dev_room_2_init             scene_dev_room_2_init
     00164A27  ___func_scene_dev_room_2_sprites   scene_dev_room_2_sprites
ASxxxx Linker V03.00 + NoICE + sdld,  page 62.
Hexadecimal  [32-Bits]

Area                                    Addr        Size        Decimal Bytes (Attributes)
--------------------------------        ----        ----        ------- ----- ------------
_CODE_22                            00164000    00001539 =        5433. bytes (REL,CON)

      Value  Global                              Global Defined In Module
      -----  --------------------------------   ------------------------
     00164A27  _scene_dev_room_2_sprites          scene_dev_room_2_sprites
     00164A33  _scene_docks_init                  scene_docks_init
     00164A49  ___func_scene_docks_sprites        scene_docks_sprites
     00164A49  _scene_docks_sprites               scene_docks_sprites
     00164A4C  ___func_scene_gbc_start_dark_bat   scene_gbc_start_dark_bathro_
     00164A4C  _scene_gbc_start_dark_bathro_spr   scene_gbc_start_dark_bathro_
     00164A58  _scene_gbc_wake_01_init            scene_gbc_wake_01_init
     00164A7E  _scene_gbc_wake_02_init            scene_gbc_wake_02_init
     00164AA4  _scene_gbc_wake_03_init            scene_gbc_wake_03_init
     00164ACA  _scene_gbc_wake_04_init            scene_gbc_wake_04_init
     00164AF0  _scene_gbc_wake_05_init            scene_gbc_wake_05_init
     00164B16  ___func_scene_input_password_2_0   scene_input_password_2_0_spr
     00164B16  _scene_input_password_2_0_sprite   scene_input_password_2_0_spr
     00164B19  ___func_scene_inventory_tester_s   scene_inventory_tester_sprit
     00164B19  _scene_inventory_tester_sprites    scene_inventory_tester_sprit
     00164B1C  ___func_scene_item_screen_1_old_   scene_item_screen_1_old_trig
     00164B1C  _scene_item_screen_1_old_trigger   scene_item_screen_1_old_trig
     00164B3C  ___func_scene_item_screen_2_new_   scene_item_screen_2_new_spri
     00164B3C  _scene_item_screen_2_new_sprites   scene_item_screen_2_new_spri
     00164B42  _scene_start_dark_bathroom_init    scene_start_dark_bathroom_in
     00164B69  ___func_scene_start_dark_bathroo   scene_start_dark_bathroom_sp
     00164B69  _scene_start_dark_bathroom_sprit   scene_start_dark_bathroom_sp
     00164B6F  ___func_scene_start_dark_bathroo   scene_start_dark_bathroom_tr
     00164B6F  _scene_start_dark_bathroom_trigg   scene_start_dark_bathroom_tr
     00164B77  ___func_scene_start_dark_bedroom   scene_start_dark_bedroom_spr
     00164B77  _scene_start_dark_bedroom_sprite   scene_start_dark_bedroom_spr
     00164B7D  ___func_scene_start_dark_bedroom   scene_start_dark_bedroom_tri
     00164B7D  _scene_start_dark_bedroom_trigge   scene_start_dark_bedroom_tri
     00164B8D  ___func_scene_start_dark_livingr   scene_start_dark_livingroom_
     00164B8D  _scene_start_dark_livingroom_spr   scene_start_dark_livingroom_
     00164B90  ___func_scene_start_dark_livingr   scene_start_dark_livingroom_
     00164B90  _scene_start_dark_livingroom_tri   scene_start_dark_livingroom_
     00164BA0  ___func_scene_tile_screen_gbc_sp   scene_tile_screen_gbc_sprite
     00164BA0  _scene_tile_screen_gbc_sprites     scene_tile_screen_gbc_sprite
     00164BA3  _script_input_12                   script_input_12
     00164BAC  _script_input_18                   script_input_18
     00164BAD  _script_input_19                   script_input_19
     00164BD2  _script_input_2                    script_input_2
     00164BDB  _script_input_20                   script_input_20
     00164BDC  _script_input_21                   script_input_21
     00164C01  _script_input_22                   script_input_22
     00164C02  _script_input_23                   script_input_23
     00164C27  _script_input_24                   script_input_24
     00164C28  _script_input_25                   script_input_25
     00164C4D  _script_input_26                   script_input_26
     00164C4E  _script_input_27                   script_input_27
     00164C73  _script_input_28                   script_input_28
     00164C74  _script_input_29                   script_input_29
     00164CA0  _script_input_3                    script_input_3
     00164CAE  _script_input_30                   script_input_30
     00164CAF  _script_input_31                   script_input_31
ASxxxx Linker V03.00 + NoICE + sdld,  page 63.
Hexadecimal  [32-Bits]

Area                                    Addr        Size        Decimal Bytes (Attributes)
--------------------------------        ----        ----        ------- ----- ------------
_CODE_22                            00164000    00001539 =        5433. bytes (REL,CON)

      Value  Global                              Global Defined In Module
      -----  --------------------------------   ------------------------
     00164CD4  _script_input_32                   script_input_32
     00164CD5  _script_input_33                   script_input_33
     00164CFA  _script_input_34                   script_input_34
     00164CFB  _script_input_35                   script_input_35
     00164D20  _script_input_36                   script_input_36
     00164D21  _script_input_37                   script_input_37
     00164D46  _script_input_38                   script_input_38
     00164D47  _script_input_39                   script_input_39
     00164D6C  _script_input_40                   script_input_40
     00164D6D  _script_input_41                   script_input_41
     00164D92  _script_input_42                   script_input_42
     00164D93  _script_input_43                   script_input_43
     00164DBF  _script_input_44                   script_input_44
     00164DC0  _script_input_5                    script_input_5
     00164DC9  _script_input_6                    script_input_6
     00164DCA  _script_input_8                    script_input_8
     00164DCB  _script_timer_0                    script_timer_0
     00164DCE  _script_timer_1                    script_timer_1
     00164DF3  _script_timer_10                   script_timer_10
     00164E1E  _script_timer_2                    script_timer_2
     00164E43  _script_timer_3                    script_timer_3
     00164E68  _script_timer_4                    script_timer_4
     00164E8D  _script_timer_5                    script_timer_5
     00164EB8  _script_timer_6                    script_timer_6
     00164EDD  _script_timer_7                    script_timer_7
     00164F02  _script_timer_8                    script_timer_8
     00164F27  _script_timer_9                    script_timer_9
     00164F4C  ___func_sound_legacy_0             sound_legacy_0
     00164F4C  _sound_legacy_0                    sound_legacy_0
     00164F75  ___func_sound_legacy_1             sound_legacy_1
     00164F75  _sound_legacy_1                    sound_legacy_1
     00164F88  ___func_sound_legacy_2             sound_legacy_2
     00164F88  _sound_legacy_2                    sound_legacy_2
     00164F9B  ___func_sound_legacy_3             sound_legacy_3
     00164F9B  _sound_legacy_3                    sound_legacy_3
     00164FAE  ___func_sprite_fire_starts_start   sprite_fire_starts_start_fi_
     00164FAE  _sprite_fire_starts_start_fi_til   sprite_fire_starts_start_fi_
     00164FD0  ___func_sprite_fire_starts_start   sprite_fire_starts_start_fi
     00164FD0  _sprite_fire_starts_start_fi_met   sprite_fire_starts_start_fi
     00164FD8  _sprite_fire_starts_start_fi_met   sprite_fire_starts_start_fi
     00164FDA  _sprite_fire_starts_start_fi_ani   sprite_fire_starts_start_fi
     00164FEA  _sprite_fire_starts_start_fi_ani   sprite_fire_starts_start_fi
     00164FEC  _sprite_fire_starts_start_fi       sprite_fire_starts_start_fi
     00164FFF  ___func_sprite_generic_invisible   sprite_generic_invisible_co_
     00164FFF  _sprite_generic_invisible_co_til   sprite_generic_invisible_co_
     00165002  ___func_sprite_generic_invisible   sprite_generic_invisible_co
     00165002  _sprite_generic_invisible_co_met   sprite_generic_invisible_co
     00165006  _sprite_generic_invisible_co_met   sprite_generic_invisible_co
     00165008  _sprite_generic_invisible_co_ani   sprite_generic_invisible_co
     00165018  _sprite_generic_invisible_co_ani   sprite_generic_invisible_co
     0016501A  _sprite_generic_invisible_co       sprite_generic_invisible_co
ASxxxx Linker V03.00 + NoICE + sdld,  page 64.
Hexadecimal  [32-Bits]

Area                                    Addr        Size        Decimal Bytes (Attributes)
--------------------------------        ----        ----        ------- ----- ------------
_CODE_22                            00164000    00001539 =        5433. bytes (REL,CON)

      Value  Global                              Global Defined In Module
      -----  --------------------------------   ------------------------
     0016502D  ___func_sprite_generic_invisible   sprite_generic_invisible
     0016502D  _sprite_generic_invisible_metasp   sprite_generic_invisible
     00165031  _sprite_generic_invisible_metasp   sprite_generic_invisible
     00165033  _sprite_generic_invisible_animat   sprite_generic_invisible
     00165043  _sprite_generic_invisible_animat   sprite_generic_invisible
     00165045  _sprite_generic_invisible          sprite_generic_invisible
     00165058  ___func_sprite_icons_item_start_   sprite_icons_item_start_rem
     00165058  _sprite_icons_item_start_rem_met   sprite_icons_item_start_rem
     00165064  _sprite_icons_item_start_rem_met   sprite_icons_item_start_rem
     00165066  _sprite_icons_item_start_rem_ani   sprite_icons_item_start_rem
     00165076  _sprite_icons_item_start_rem_ani   sprite_icons_item_start_rem
     00165078  _sprite_icons_item_start_rem       sprite_icons_item_start_rem
     0016508B  ___func_sprite_icons_item_start_   sprite_icons_item_start_tor
     0016508B  _sprite_icons_item_start_tor_met   sprite_icons_item_start_tor
     00165097  _sprite_icons_item_start_tor_met   sprite_icons_item_start_tor
     00165099  _sprite_icons_item_start_tor_ani   sprite_icons_item_start_tor
     001650A9  _sprite_icons_item_start_tor_ani   sprite_icons_item_start_tor
     001650AB  _sprite_icons_item_start_tor       sprite_icons_item_start_tor
     001650BE  ___func_sprite_niko_possible_red   sprite_niko_possible_redesi_
     001650BE  _sprite_niko_possible_redesi_0_t   sprite_niko_possible_redesi_
     001650E0  ___func_sprite_niko_possible_red   sprite_niko_possible_redesi_
     001650E0  _sprite_niko_possible_redesi_0_m   sprite_niko_possible_redesi_
     001650EC  _sprite_niko_possible_redesi_0_m   sprite_niko_possible_redesi_
     001650EE  _sprite_niko_possible_redesi_0_a   sprite_niko_possible_redesi_
     001650FE  _sprite_niko_possible_redesi_0_a   sprite_niko_possible_redesi_
     00165100  _sprite_niko_possible_redesi_0     sprite_niko_possible_redesi_
     00165113  ___func_sprite_niko_possible_red   sprite_niko_possible_redesi_
     00165113  _sprite_niko_possible_redesi_til   sprite_niko_possible_redesi_
     00165135  ___func_sprite_niko_possible_red   sprite_niko_possible_redesi
     00165135  _sprite_niko_possible_redesi_met   sprite_niko_possible_redesi
     00165141  _sprite_niko_possible_redesi_met   sprite_niko_possible_redesi
     00165143  _sprite_niko_possible_redesi_ani   sprite_niko_possible_redesi
     00165153  _sprite_niko_possible_redesi_ani   sprite_niko_possible_redesi
     00165155  _sprite_niko_possible_redesi       sprite_niko_possible_redesi
     00165168  ___func_sprite_scarf01_tileset     sprite_scarf01_tileset
     00165168  _sprite_scarf01_tileset            sprite_scarf01_tileset
     0016518A  ___func_sprite_scarf01             sprite_scarf01
     0016518A  _sprite_scarf01_metasprite_0       sprite_scarf01
     00165192  _sprite_scarf01_metasprites        sprite_scarf01
     00165194  _sprite_scarf01_animations         sprite_scarf01
     001651A4  _sprite_scarf01_animations_looku   sprite_scarf01
     001651A6  _sprite_scarf01                    sprite_scarf01
     001651B9  ___func_sprite_static              sprite_static
     001651B9  _sprite_static_metasprite_0        sprite_static
     001651C5  _sprite_static_metasprites         sprite_static
     001651C7  _sprite_static_animations          sprite_static
     001651D7  _sprite_static_animations_lookup   sprite_static
     001651D9  _sprite_static                     sprite_static
     001651EC  _spritesheet_none_metasprite       spritesheet_none
     001651F0  _spritesheet_none_metasprites      spritesheet_none
     001651F2  _spritesheet_none                  spritesheet_none
ASxxxx Linker V03.00 + NoICE + sdld,  page 65.
Hexadecimal  [32-Bits]

Area                                    Addr        Size        Decimal Bytes (Attributes)
--------------------------------        ----        ----        ------- ----- ------------
_CODE_22                            00164000    00001539 =        5433. bytes (REL,CON)

      Value  Global                              Global Defined In Module
      -----  --------------------------------   ------------------------
     00165205  _trigger_1_interact                trigger_1_interact
     00165237  _trigger_10_interact               trigger_10_interact
     0016524D  _trigger_11_interact               trigger_11_interact
     00165263  _trigger_14_interact               trigger_14_interact
     00165289  _trigger_2_interact                trigger_2_interact
     0016529F  _trigger_25_interact               trigger_25_interact
     001652C5  _trigger_3_interact                trigger_3_interact
     001652DB  _trigger_32_interact               trigger_32_interact
     00165301  _trigger_37_interact               trigger_37_interact
     00165320  _trigger_38_interact               trigger_38_interact
     0016533F  _trigger_44_interact               trigger_44_interact
     00165358  _trigger_45_interact               trigger_45_interact
     00165371  _trigger_46_interact               trigger_46_interact
     0016538A  _trigger_48_interact               trigger_48_interact
     001653A6  _trigger_49_interact               trigger_49_interact
     001653BF  _trigger_50_interact               trigger_50_interact
     001653D8  _trigger_51_interact               trigger_51_interact
     001653EF  _trigger_53_interact               trigger_53_interact
     0016540B  _trigger_54_interact               trigger_54_interact
     00165427  _trigger_55_interact               trigger_55_interact
     00165443  _trigger_56_interact               trigger_56_interact
     0016545F  _trigger_57_interact               trigger_57_interact
     00165485  _trigger_6_interact                trigger_6_interact
     0016549B  _trigger_78_interact               trigger_78_interact
     001654C1  _trigger_79_interact               trigger_79_interact
     001654DA  _trigger_8_interact                trigger_8_interact
     001654F0  _trigger_80_interact               trigger_80_interact
     0016550C  _trigger_81_interact               trigger_81_interact
     00165528  _logo_init                         logo
     00165538  _logo_update                       logo

ASxxxx Linker V03.00 + NoICE + sdld,  page 66.
Hexadecimal  [32-Bits]

Area                                    Addr        Size        Decimal Bytes (Attributes)
--------------------------------        ----        ----        ------- ----- ------------
_CODE_15                            000F4000    00004000 =       16384. bytes (REL,CON)

      Value  Global                              Global Defined In Module
      -----  --------------------------------   ------------------------
     000F4000  _core_reset                        core
     000F4075  _process_VM                        core
     000F431C  _core_run                          core
     000F4446  _projectiles_init                  projectiles
     000F4486  _projectile_launch                 projectiles
     000F488F  _actor_item_3_interact             actor_item_3_interact
     000F4E25  _actor_window_interact_interact    actor_window_interact_intera
     000F528C  ___func_bg_pictures_b0_2_gbc_til   bg_pictures_b0_2_gbc_tilemap
     000F528C  _bg_pictures_b0_2_gbc_tilemap_at   bg_pictures_b0_2_gbc_tilemap
     000F56C4  ___func_bg_pictures_b0_2_gbc_til   bg_pictures_b0_2_gbc_tilemap
     000F56C4  _bg_pictures_b0_2_gbc_tilemap      bg_pictures_b0_2_gbc_tilemap
     000F5AFC  ___func_bg_pictures_b0_2_tilemap   bg_pictures_b0_2_tilemap_att
     000F5AFC  _bg_pictures_b0_2_tilemap_attr     bg_pictures_b0_2_tilemap_att
     000F5F34  ___func_bg_pictures_b0_2_tilemap   bg_pictures_b0_2_tilemap
     000F5F34  _bg_pictures_b0_2_tilemap          bg_pictures_b0_2_tilemap
     000F636C  ___func_bg_pictures_cg_door2_gb_   bg_pictures_cg_door2_gb_tile
     000F636C  _bg_pictures_cg_door2_gb_tileset   bg_pictures_cg_door2_gb_tile
     000F67CE  ___func_bg_startinghome_livingro   bg_startinghome_livingroomg_
     000F67CE  _bg_startinghome_livingroomg_til   bg_startinghome_livingroomg_
     000F6D50  ___func_scene_b0_2_collisions      scene_b0_2_collisions
     000F6D50  _scene_b0_2_collisions             scene_b0_2_collisions
     000F7188  ___func_scene_b0_2_gbc_collision   scene_b0_2_gbc_collisions
     000F7188  _scene_b0_2_gbc_collisions         scene_b0_2_gbc_collisions
     000F75C0  ___func_scene_basement_stairs_wi   scene_basement_stairs_with__
     000F75C0  _scene_basement_stairs_with__spr   scene_basement_stairs_with__
     000F75C6  _scene_item_screen_1_old_init      scene_item_screen_1_old_init
     000F7A2E  ___func_scene_item_screen_2_new_   scene_item_screen_2_new_acto
     000F7A2E  _scene_item_screen_2_new_actors    scene_item_screen_2_new_acto
     000F7E3E  ___func_sprite_characters_niko_n   sprite_characters_niko_niko_
     000F7E3E  _sprite_characters_niko_niko_til   sprite_characters_niko_niko_
ASxxxx Linker V03.00 + NoICE + sdld,  page 67.
Hexadecimal  [32-Bits]

Area                                    Addr        Size        Decimal Bytes (Attributes)
--------------------------------        ----        ----        ------- ----- ------------
_CRASH_HEADER0                      00000000    00000005 =           5. bytes (ABS,CON)

      Value  Global                              Global Defined In Module
      -----  --------------------------------   ------------------------
ASxxxx Linker V03.00 + NoICE + sdld,  page 68.
Hexadecimal  [32-Bits]

Area                                    Addr        Size        Decimal Bytes (Attributes)
--------------------------------        ----        ----        ------- ----- ------------
_CRASH_HEADER1                      00000000    00000004 =           4. bytes (ABS,CON)

      Value  Global                              Global Defined In Module
      -----  --------------------------------   ------------------------
ASxxxx Linker V03.00 + NoICE + sdld,  page 69.
Hexadecimal  [32-Bits]

Area                                    Addr        Size        Decimal Bytes (Attributes)
--------------------------------        ----        ----        ------- ----- ------------
_CODE_16                            00104000    00004000 =       16384. bytes (REL,CON)

      Value  Global                              Global Defined In Module
      -----  --------------------------------   ------------------------
     00104000  ___HandleCrash_banked              
     00104367  _printer_send_receive              gbprinter
     001043A1  _printer_send_byte                 gbprinter
     001043C0  _printer_send_command              gbprinter
     001043EB  _printer_print_tile                gbprinter
     00104485  _printer_wait                      gbprinter
     001044B5  _gbprinter_detect                  gbprinter
     001044D7  _gbprinter_print_overlay           gbprinter
     0010471A  _data_init                         load_save
     00104765  _save_points                       load_save
     001047BD  _data_slot_address                 load_save
     00104821  _data_save                         load_save
     00104907  _data_load                         load_save
     00104A16  _data_clear                        load_save
     00104A47  _data_peek                         load_save
     00104AF5  _set_sgb_border                    sgb_border
     00104D26  _trigger_reset                     trigger
     00104D36  _trigger_interact                  trigger
     00104D76  _trigger_activate_at               trigger
     00104DC1  _trigger_at_intersection           trigger
     00104ED6  _trigger_activate_at_intersectio   trigger
     00105018  _trigger_at_tile                   trigger
     001050A8  ___func_VM_CAMERA                  vm_camera
     001050A8  _vm_camera_move_to                 vm_camera
     001051FB  _vm_camera_set_pos                 vm_camera
     00105242  _camera_shake_frames               vm_camera
     0010533A  ___func_VM_SIO                     vm_sio
     0010533A  _vm_sio_set_mode                   vm_sio
     0010534D  _vm_sio_exchange                   vm_sio
     001056A6  ___func_avatar_font_0              avatar_font_0
     001059D6  _avatar_font_0                     avatar_font_0
     001059DE  ___func_bg_gb_switch_jul162021_t   bg_gb_switch_jul162021_tiles
     001059DE  _bg_gb_switch_jul162021_tileset    bg_gb_switch_jul162021_tiles
     00105DE0  ___func_bg_input_password_screen   bg_input_password_screen_til
     00105DE0  _bg_input_password_screen_tilese   bg_input_password_screen_til
     00106012  ___func_bg_new_folder_wip_baseme   bg_new_folder_wip_basement__
     00106012  _bg_new_folder_wip_basement__1_t   bg_new_folder_wip_basement__
     00106240  ___func_bg_startinghome_startgb_   bg_startinghome_startgb_tile
     00106240  _bg_startinghome_startgb_tileset   bg_startinghome_startgb_tile
     00106542  _scene_the_end_scene__init         scene_the_end_scene__init
     00106642  _script_input_14                   script_input_14
     00106643  _script_input_4                    script_input_4
     001069A7  _script_input_9                    script_input_9
     00106BE9  ___func_sprite_text_sprite_numbe   sprite_text_sprite_numbers__
     00106BE9  _sprite_text_sprite_numbers__0_t   sprite_text_sprite_numbers__
     00106E4B  ___func_sprite_text_sprite_numbe   sprite_text_sprite_numbers__
     00106E4B  _sprite_text_sprite_numbers__til   sprite_text_sprite_numbers__
     001070AD  _trigger_12_interact               trigger_12_interact
     0010739D  _trigger_13_interact               trigger_13_interact
     001076A5  _trigger_7_interact                trigger_7_interact
ASxxxx Linker V03.00 + NoICE + sdld,  page 70.
Hexadecimal  [32-Bits]

Area                                    Addr        Size        Decimal Bytes (Attributes)
--------------------------------        ----        ----        ------- ----- ------------
_CODE_16                            00104000    00004000 =       16384. bytes (REL,CON)

      Value  Global                              Global Defined In Module
      -----  --------------------------------   ------------------------
     00107995  _trigger_9_interact                trigger_9_interact
     00107C9D  _pointnclick_init                  pointnclick
     00107CD6  _pointnclick_update                pointnclick

ASxxxx Linker V03.00 + NoICE + sdld,  page 71.
Hexadecimal  [32-Bits]

Area                                    Addr        Size        Decimal Bytes (Attributes)
--------------------------------        ----        ----        ------- ----- ------------
_CRASH_SCRATCH2                     00000000    000001CB =         459. bytes (ABS,CON)

      Value  Global                              Global Defined In Module
      -----  --------------------------------   ------------------------
ASxxxx Linker V03.00 + NoICE + sdld,  page 72.
Hexadecimal  [32-Bits]

Area                                    Addr        Size        Decimal Bytes (Attributes)
--------------------------------        ----        ----        ------- ----- ------------
_CODE_8                             00084000    00004000 =       16384. bytes (REL,CON)

      Value  Global                              Global Defined In Module
      -----  --------------------------------   ------------------------
     00084000  _load_init                         data_manager
     00084013  _spritesheet_none_far              data_manager
     00084016  _load_bkg_tileset                  data_manager
     000840EF  _load_background                   data_manager
     000841ED  _load_sprite                       data_manager
     000842EA  _load_bounds                       data_manager
     0008430A  _do_load_palette                   data_manager
     0008438A  _load_scene                        data_manager
     00084C86  _load_player                       data_manager
     00084CD2  _load_emote                        data_manager
     00084CE6  ___func_bg_normal_gbc_tileset      bg_normal_gbc_tileset
     00084CE6  _bg_normal_gbc_tileset             bg_normal_gbc_tileset
     000858C8  ___func_bg_pictures_cg_wake1_gb_   bg_pictures_cg_wake1_gb_tile
     000858C8  _bg_pictures_cg_wake1_gb_tileset   bg_pictures_cg_wake1_gb_tile
     0008659A  ___func_bg_pictures_cg_wake3_gb_   bg_pictures_cg_wake3_gb_tile
     0008659A  _bg_pictures_cg_wake3_gb_tileset   bg_pictures_cg_wake3_gb_tile
     000872DC  ___func_bg_pictures_cg_wake3_gbc   bg_pictures_cg_wake3_gbc_til
     000872DC  _bg_pictures_cg_wake3_gbc_tilese   bg_pictures_cg_wake3_gbc_til
     00087FEE  ___func_scene_dev_room_sprites     scene_dev_room_sprites
     00087FEE  _scene_dev_room_sprites            scene_dev_room_sprites

ASxxxx Linker V03.00 + NoICE + sdld,  page 73.
Hexadecimal  [32-Bits]

Area                                    Addr        Size        Decimal Bytes (Attributes)
--------------------------------        ----        ----        ------- ----- ------------
_CODE_21                            00154000    00004000 =       16384. bytes (REL,CON)

      Value  Global                              Global Defined In Module
      -----  --------------------------------   ------------------------
     00154000  _events_init                       events
     00154040  _timers_init                       events
     00154080  _restore_sram_bank                 flasher
     001540BA  _restore_sram                      flasher
     001540D0  _save_sram                         flasher
     00154100  _scroll_rect                       
     0015413D  ___func_VM_GBPRINTER               vm_gbprinter
     0015413D  _vm_print_detect                   vm_gbprinter
     0015418F  _vm_print_overlay                  vm_gbprinter
     001541E7  ___func_VM_LOAD_SAVE               vm_load_save
     001541E7  _vm_save_clear                     vm_load_save
     001541F6  _vm_save_peek                      vm_load_save
     00154278  ___func_VM_SCENE                   vm_scene
     00154278  _vm_scene_push                     vm_scene
     001542FD  _vm_scene_pop                      vm_scene
     0015430B  _vm_scene_pop_all                  vm_scene
     00154316  _vm_scene_stack_reset              vm_scene
     0015431F  _actor_1_interact                  actor_1_interact
     00154394  _actor_1_update                    actor_1_update
     00154402  _actor_10_interact                 actor_10_interact
     00154440  _actor_12_update                   actor_12_update
     0015449B  _actor_17_interact                 actor_17_interact
     001544DC  _actor_18_interact                 actor_18_interact
     00154520  _actor_20_interact                 actor_20_interact
     00154595  _actor_3_interact                  actor_3_interact
     001545F0  _actor_32_interact                 actor_32_interact
     00154649  _actor_34_interact                 actor_34_interact
     00154685  _actor_39_interact                 actor_39_interact
     001546DB  _actor_4_interact                  actor_4_interact
     00154750  _actor_42_interact                 actor_42_interact
     0015478E  _actor_46_interact                 actor_46_interact
     00154843  _actor_47_interact                 actor_47_interact
     001548F8  _actor_49_interact                 actor_49_interact
     001549AD  _actor_6_update                    actor_6_update
     00154A33  _actor_9_interact                  actor_9_interact
     00154A95  _actor_comments_update             actor_comments_update
     00154AF5  _actor_constantly_checks_ite_upd   actor_constantly_checks_ite_
     00154B3C  _actor_green_interact              actor_green_interact
     00154B73  _actor_keyhole_interact            actor_keyhole_interact
     00154C14  _actor_niko_bed_2_interact         actor_niko_bed_2_interact
     00154C4A  ___func_bg_inv_sys_2_tileset       bg_inv_sys_2_tileset
     00154C4A  _bg_inv_sys_2_tileset              bg_inv_sys_2_tileset
     00154CDC  ___func_bg_new_folder_wip_baseme   bg_new_folder_wip_basement__
     00154CDC  _bg_new_folder_wip_basement__1_t   bg_new_folder_wip_basement__
     00154D6E  ___func_bg_placeholder_tileset     bg_placeholder_tileset
     00154D6E  _bg_placeholder_tileset            bg_placeholder_tileset
     00154DB0  ___func_frame_image                frame_image
     00154DB0  _frame_image                       frame_image
     00154E40  ___func_palette_0                  palette_0
     00154E40  _palette_0                         palette_0
ASxxxx Linker V03.00 + NoICE + sdld,  page 74.
Hexadecimal  [32-Bits]

Area                                    Addr        Size        Decimal Bytes (Attributes)
--------------------------------        ----        ----        ------- ----- ------------
_CODE_21                            00154000    00004000 =       16384. bytes (REL,CON)

      Value  Global                              Global Defined In Module
      -----  --------------------------------   ------------------------
     00154E83  ___func_palette_1                  palette_1
     00154E83  _palette_1                         palette_1
     00154EC6  ___func_palette_10                 palette_10
     00154EC6  _palette_10                        palette_10
     00154F09  ___func_palette_11                 palette_11
     00154F09  _palette_11                        palette_11
     00154F4C  ___func_palette_12                 palette_12
     00154F4C  _palette_12                        palette_12
     00154F8F  ___func_palette_13                 palette_13
     00154F8F  _palette_13                        palette_13
     00154FD2  ___func_palette_14                 palette_14
     00154FD2  _palette_14                        palette_14
     00155015  ___func_palette_15                 palette_15
     00155015  _palette_15                        palette_15
     00155058  ___func_palette_16                 palette_16
     00155058  _palette_16                        palette_16
     0015509B  ___func_palette_17                 palette_17
     0015509B  _palette_17                        palette_17
     001550DE  ___func_palette_18                 palette_18
     001550DE  _palette_18                        palette_18
     00155121  ___func_palette_19                 palette_19
     00155121  _palette_19                        palette_19
     00155164  ___func_palette_2                  palette_2
     00155164  _palette_2                         palette_2
     001551A7  ___func_palette_20                 palette_20
     001551A7  _palette_20                        palette_20
     001551EA  ___func_palette_21                 palette_21
     001551EA  _palette_21                        palette_21
     0015522D  ___func_palette_22                 palette_22
     0015522D  _palette_22                        palette_22
     00155270  ___func_palette_23                 palette_23
     00155270  _palette_23                        palette_23
     001552B3  ___func_palette_24                 palette_24
     001552B3  _palette_24                        palette_24
     001552F6  ___func_palette_25                 palette_25
     001552F6  _palette_25                        palette_25
     00155339  ___func_palette_26                 palette_26
     00155339  _palette_26                        palette_26
     0015537C  ___func_palette_27                 palette_27
     0015537C  _palette_27                        palette_27
     001553BF  ___func_palette_28                 palette_28
     001553BF  _palette_28                        palette_28
     00155402  ___func_palette_29                 palette_29
     00155402  _palette_29                        palette_29
     00155445  ___func_palette_3                  palette_3
     00155445  _palette_3                         palette_3
     00155488  ___func_palette_30                 palette_30
     00155488  _palette_30                        palette_30
     001554CB  ___func_palette_31                 palette_31
     001554CB  _palette_31                        palette_31
     0015550E  ___func_palette_4                  palette_4
ASxxxx Linker V03.00 + NoICE + sdld,  page 75.
Hexadecimal  [32-Bits]

Area                                    Addr        Size        Decimal Bytes (Attributes)
--------------------------------        ----        ----        ------- ----- ------------
_CODE_21                            00154000    00004000 =       16384. bytes (REL,CON)

      Value  Global                              Global Defined In Module
      -----  --------------------------------   ------------------------
     0015550E  _palette_4                         palette_4
     00155551  ___func_palette_5                  palette_5
     00155551  _palette_5                         palette_5
     00155594  ___func_palette_6                  palette_6
     00155594  _palette_6                         palette_6
     001555D7  ___func_palette_7                  palette_7
     001555D7  _palette_7                         palette_7
     0015561A  ___func_palette_8                  palette_8
     0015561A  _palette_8                         palette_8
     0015565D  ___func_palette_9                  palette_9
     0015565D  _palette_9                         palette_9
     001556A0  ___func_scene_b0_2_gbc             scene_b0_2_gbc
     001556A0  _scene_b0_2_gbc                    scene_b0_2_gbc
     001556DB  ___func_scene_b0_2                 scene_b0_2
     001556DB  _scene_b0_2                        scene_b0_2
     00155716  ___func_scene_b3_gbc               scene_b3_gbc
     00155716  _scene_b3_gbc                      scene_b3_gbc
     00155751  ___func_scene_b3                   scene_b3
     00155751  _scene_b3                          scene_b3
     0015578C  ___func_scene_b4_gbc               scene_b4_gbc
     0015578C  _scene_b4_gbc                      scene_b4_gbc
     001557C7  ___func_scene_b4                   scene_b4
     001557C7  _scene_b4                          scene_b4
     00155802  ___func_scene_b5_gbc               scene_b5_gbc
     00155802  _scene_b5_gbc                      scene_b5_gbc
     0015583D  ___func_scene_b5                   scene_b5
     0015583D  _scene_b5                          scene_b5
     00155878  ___func_scene_b6_gbc               scene_b6_gbc
     00155878  _scene_b6_gbc                      scene_b6_gbc
     001558B3  ___func_scene_b6                   scene_b6
     001558B3  _scene_b6                          scene_b6
     001558EE  ___func_scene_b7_gbc               scene_b7_gbc
     001558EE  _scene_b7_gbc                      scene_b7_gbc
     00155929  ___func_scene_b7                   scene_b7
     00155929  _scene_b7                          scene_b7
     00155964  ___func_scene_b8_gbc               scene_b8_gbc
     00155964  _scene_b8_gbc                      scene_b8_gbc
     0015599F  ___func_scene_b8                   scene_b8
     0015599F  _scene_b8                          scene_b8
     001559DA  _scene_b9_gbc_init                 scene_b9_gbc_init
     00155A5C  ___func_scene_b9_gbc               scene_b9_gbc
     00155A5C  _scene_b9_gbc                      scene_b9_gbc
     00155A97  _scene_b9_init                     scene_b9_init
     00155B19  ___func_scene_b9                   scene_b9
     00155B19  _scene_b9                          scene_b9
     00155B54  ___func_scene_basement_light_act   scene_basement_light_actors
     00155B54  _scene_basement_light_actors       scene_basement_light_actors
     00155B88  _scene_basement_light_init         scene_basement_light_init
     00155BC9  ___func_scene_basement_light       scene_basement_light
     00155BC9  _scene_basement_light              scene_basement_light
     00155C04  ___func_scene_basement_no_light_   scene_basement_no_light_acto
ASxxxx Linker V03.00 + NoICE + sdld,  page 76.
Hexadecimal  [32-Bits]

Area                                    Addr        Size        Decimal Bytes (Attributes)
--------------------------------        ----        ----        ------- ----- ------------
_CODE_21                            00154000    00004000 =       16384. bytes (REL,CON)

      Value  Global                              Global Defined In Module
      -----  --------------------------------   ------------------------
     00155C04  _scene_basement_no_light_actors    scene_basement_no_light_acto
     00155C6C  _scene_basement_no_light_init      scene_basement_no_light_init
     00155CA3  ___func_scene_basement_no_light    scene_basement_no_light
     00155CA3  _scene_basement_no_light           scene_basement_no_light
     00155CDE  ___func_scene_basement_stairs_ac   scene_basement_stairs_actors
     00155CDE  _scene_basement_stairs_actors      scene_basement_stairs_actors
     00155D46  ___func_scene_basement_stairs_ol   scene_basement_stairs_old_ac
     00155D46  _scene_basement_stairs_old_actor   scene_basement_stairs_old_ac
     00155DAE  _scene_basement_stairs_old_init    scene_basement_stairs_old_in
     00155E01  ___func_scene_basement_stairs_ol   scene_basement_stairs_old_tr
     00155E01  _scene_basement_stairs_old_trigg   scene_basement_stairs_old_tr
     00155EA9  ___func_scene_basement_stairs_ol   scene_basement_stairs_old
     00155EA9  _scene_basement_stairs_old         scene_basement_stairs_old
     00155EE4  ___func_scene_basement_stairs_wi   scene_basement_stairs_with__
     00155EE4  _scene_basement_stairs_with__act   scene_basement_stairs_with__
     00155F80  _scene_basement_stairs_with__ini   scene_basement_stairs_with__
     00155FC1  ___func_scene_basement_stairs_wi   scene_basement_stairs_with_
     00155FC1  _scene_basement_stairs_with_       scene_basement_stairs_with_
     00155FFC  ___func_scene_basement_stairs      scene_basement_stairs
     00155FFC  _scene_basement_stairs             scene_basement_stairs
     00156037  _scene_cg_door_1_init              scene_cg_door_1_init
     001560E7  ___func_scene_cg_door_1            scene_cg_door_1
     001560E7  _scene_cg_door_1                   scene_cg_door_1
     00156122  _scene_cg_door_2_init              scene_cg_door_2_init
     0015615A  ___func_scene_cg_door_2            scene_cg_door_2
     0015615A  _scene_cg_door_2                   scene_cg_door_2
     00156195  ___func_scene_cg_wake_1            scene_cg_wake_1
     00156195  _scene_cg_wake_1                   scene_cg_wake_1
     001561D0  ___func_scene_cg_wake_2            scene_cg_wake_2
     001561D0  _scene_cg_wake_2                   scene_cg_wake_2
     0015620B  ___func_scene_cg_wake_3            scene_cg_wake_3
     0015620B  _scene_cg_wake_3                   scene_cg_wake_3
     00156246  ___func_scene_cg_wake_4            scene_cg_wake_4
     00156246  _scene_cg_wake_4                   scene_cg_wake_4
     00156281  ___func_scene_cg_wake_5            scene_cg_wake_5
     00156281  _scene_cg_wake_5                   scene_cg_wake_5
     001562BC  _scene_computer_cutscene_2_init    scene_computer_cutscene_2_in
     0015631E  ___func_scene_computer_cutscene_   scene_computer_cutscene_2
     0015631E  _scene_computer_cutscene_2         scene_computer_cutscene_2
     00156359  _scene_computer_cutscene_init      scene_computer_cutscene_init
     001563BB  ___func_scene_computer_cutscene    scene_computer_cutscene
     001563BB  _scene_computer_cutscene           scene_computer_cutscene
     001563F6  ___func_scene_dev_room_2           scene_dev_room_2
     001563F6  _scene_dev_room_2                  scene_dev_room_2
     00156431  ___func_scene_dev_room             scene_dev_room
     00156431  _scene_dev_room                    scene_dev_room
     0015646C  ___func_scene_docks_actors         scene_docks_actors
     0015646C  _scene_docks_actors                scene_docks_actors
     001564A0  ___func_scene_docks                scene_docks
     001564A0  _scene_docks                       scene_docks
     001564DB  ___func_scene_gbc_start_dark_bat   scene_gbc_start_dark_bathro_
ASxxxx Linker V03.00 + NoICE + sdld,  page 77.
Hexadecimal  [32-Bits]

Area                                    Addr        Size        Decimal Bytes (Attributes)
--------------------------------        ----        ----        ------- ----- ------------
_CODE_21                            00154000    00004000 =       16384. bytes (REL,CON)

      Value  Global                              Global Defined In Module
      -----  --------------------------------   ------------------------
     001564DB  _scene_gbc_start_dark_bathro_tri   scene_gbc_start_dark_bathro_
     0015656B  ___func_scene_gbc_start_dark_bat   scene_gbc_start_dark_bathro
     0015656B  _scene_gbc_start_dark_bathro       scene_gbc_start_dark_bathro
     001565A6  ___func_scene_gbc_wake_01          scene_gbc_wake_01
     001565A6  _scene_gbc_wake_01                 scene_gbc_wake_01
     001565E1  ___func_scene_gbc_wake_02          scene_gbc_wake_02
     001565E1  _scene_gbc_wake_02                 scene_gbc_wake_02
     0015661C  ___func_scene_gbc_wake_03          scene_gbc_wake_03
     0015661C  _scene_gbc_wake_03                 scene_gbc_wake_03
     00156657  ___func_scene_gbc_wake_04          scene_gbc_wake_04
     00156657  _scene_gbc_wake_04                 scene_gbc_wake_04
     00156692  ___func_scene_gbc_wake_05          scene_gbc_wake_05
     00156692  _scene_gbc_wake_05                 scene_gbc_wake_05
     001566CD  _scene_input_password_2_0_init     scene_input_password_2_0_ini
     0015673C  ___func_scene_input_password_2_0   scene_input_password_2_0
     0015673C  _scene_input_password_2_0          scene_input_password_2_0
     00156777  ___func_scene_input_password_old   scene_input_password_old__tr
     00156777  _scene_input_password_old__trigg   scene_input_password_old__tr
     001567C7  ___func_scene_input_password_old   scene_input_password_old_
     001567C7  _scene_input_password_old_         scene_input_password_old_
     00156802  _scene_inventory_tester_init       scene_inventory_tester_init
     00156897  ___func_scene_inventory_tester     scene_inventory_tester
     00156897  _scene_inventory_tester            scene_inventory_tester
     001568D2  ___func_scene_item_screen_1_old    scene_item_screen_1_old
     001568D2  _scene_item_screen_1_old           scene_item_screen_1_old
     0015690D  _scene_item_screen_2_new_init      scene_item_screen_2_new_init
     001569A5  ___func_scene_item_screen_2_new    scene_item_screen_2_new
     001569A5  _scene_item_screen_2_new           scene_item_screen_2_new
     001569E0  ___func_scene_power_off_           scene_power_off_
     001569E0  _scene_power_off_                  scene_power_off_
     00156A1B  ___func_scene_start_dark_bathroo   scene_start_dark_bathroom
     00156A1B  _scene_start_dark_bathroom         scene_start_dark_bathroom
     00156A56  ___func_scene_start_dark_bedroom   scene_start_dark_bedroom
     00156A56  _scene_start_dark_bedroom          scene_start_dark_bedroom
     00156A91  ___func_scene_start_dark_livingr   scene_start_dark_livingroom
     00156A91  _scene_start_dark_livingroom       scene_start_dark_livingroom
     00156ACC  ___func_scene_the_end_scene_       scene_the_end_scene_
     00156ACC  _scene_the_end_scene_              scene_the_end_scene_
     00156B07  ___func_scene_tile_screen_gbc_ac   scene_tile_screen_gbc_actors
     00156B07  _scene_tile_screen_gbc_actors      scene_tile_screen_gbc_actors
     00156B3B  ___func_scene_tile_screen_gbc      scene_tile_screen_gbc
     00156B3B  _scene_tile_screen_gbc             scene_tile_screen_gbc
     00156B76  ___func_scene_title_screen_actor   scene_title_screen_actors
     00156B76  _scene_title_screen_actors         scene_title_screen_actors
     00156BAA  ___func_scene_title_screen         scene_title_screen
     00156BAA  _scene_title_screen                scene_title_screen
     00156BE5  _script_engine_init                
     00156C41  _script_input_11                   script_input_11
     00156CE6  _script_input_15                   script_input_15
     00156D80  _script_input_45                   script_input_45
     00156E1A  _script_item_init_inv              script_item_init_inv
ASxxxx Linker V03.00 + NoICE + sdld,  page 78.
Hexadecimal  [32-Bits]

Area                                    Addr        Size        Decimal Bytes (Attributes)
--------------------------------        ----        ----        ------- ----- ------------
_CODE_21                            00154000    00004000 =       16384. bytes (REL,CON)

      Value  Global                              Global Defined In Module
      -----  --------------------------------   ------------------------
     00156EBB  ___func_sprite_actor_tileset       sprite_actor_tileset
     00156EBB  _sprite_actor_tileset              sprite_actor_tileset
     00156F5D  ___func_sprite_bed_nikoinbed_nik   sprite_bed_nikoinbed_niko_i_
     00156F5D  _sprite_bed_nikoinbed_niko_i_til   sprite_bed_nikoinbed_niko_i_
     00156FDF  ___func_sprite_bed_nikoinbed_nik   sprite_bed_nikoinbed_niko_i
     00156FDF  _sprite_bed_nikoinbed_niko_i_met   sprite_bed_nikoinbed_niko_i
     00156FF3  _sprite_bed_nikoinbed_niko_i_met   sprite_bed_nikoinbed_niko_i
     00156FF5  _sprite_bed_nikoinbed_niko_i_ani   sprite_bed_nikoinbed_niko_i
     00157005  _sprite_bed_nikoinbed_niko_i_ani   sprite_bed_nikoinbed_niko_i
     00157007  _sprite_bed_nikoinbed_niko_i       sprite_bed_nikoinbed_niko_i
     0015701A  ___func_sprite_bed_nikoinbed_nik   sprite_bed_nikoinbed_niko_o_
     0015701A  _sprite_bed_nikoinbed_niko_o_til   sprite_bed_nikoinbed_niko_o_
     0015709C  ___func_sprite_bed_nikoinbed_nik   sprite_bed_nikoinbed_niko_o
     0015709C  _sprite_bed_nikoinbed_niko_o_met   sprite_bed_nikoinbed_niko_o
     001570B0  _sprite_bed_nikoinbed_niko_o_met   sprite_bed_nikoinbed_niko_o
     001570B2  _sprite_bed_nikoinbed_niko_o_ani   sprite_bed_nikoinbed_niko_o
     001570C2  _sprite_bed_nikoinbed_niko_o_ani   sprite_bed_nikoinbed_niko_o
     001570C4  _sprite_bed_nikoinbed_niko_o       sprite_bed_nikoinbed_niko_o
     001570D7  ___func_sprite_characters_niko_n   sprite_characters_niko_niko_
     001570D7  _sprite_characters_niko_niko_1_t   sprite_characters_niko_niko_
     00157159  ___func_sprite_characters_niko_n   sprite_characters_niko_niko_
     00157159  _sprite_characters_niko_niko_1_m   sprite_characters_niko_niko_
     00157165  _sprite_characters_niko_niko_1_m   sprite_characters_niko_niko_
     00157171  _sprite_characters_niko_niko_1_m   sprite_characters_niko_niko_
     0015717D  _sprite_characters_niko_niko_1_m   sprite_characters_niko_niko_
     00157189  _sprite_characters_niko_niko_1_m   sprite_characters_niko_niko_
     00157195  _sprite_characters_niko_niko_1_a   sprite_characters_niko_niko_
     001571A5  _sprite_characters_niko_niko_1_a   sprite_characters_niko_niko_
     001571A7  _sprite_characters_niko_niko_1     sprite_characters_niko_niko_
     001571BA  ___func_sprite_characters_niko_n   sprite_characters_niko_niko_
     001571BA  _sprite_characters_niko_niko_2_m   sprite_characters_niko_niko_
     001571C6  _sprite_characters_niko_niko_2_m   sprite_characters_niko_niko_
     001571D2  _sprite_characters_niko_niko_2_m   sprite_characters_niko_niko_
     001571DE  _sprite_characters_niko_niko_2_m   sprite_characters_niko_niko_
     001571EA  _sprite_characters_niko_niko_2_m   sprite_characters_niko_niko_
     001571F6  _sprite_characters_niko_niko_2_m   sprite_characters_niko_niko_
     00157202  _sprite_characters_niko_niko_2_m   sprite_characters_niko_niko_
     0015720E  _sprite_characters_niko_niko_2_m   sprite_characters_niko_niko_
     0015721A  _sprite_characters_niko_niko_2_m   sprite_characters_niko_niko_
     00157226  _sprite_characters_niko_niko_2_m   sprite_characters_niko_niko_
     00157232  _sprite_characters_niko_niko_2_m   sprite_characters_niko_niko_
     0015724A  _sprite_characters_niko_niko_2_a   sprite_characters_niko_niko_
     0015725A  _sprite_characters_niko_niko_2_a   sprite_characters_niko_niko_
     0015725C  _sprite_characters_niko_niko_2     sprite_characters_niko_niko_
     0015726F  ___func_sprite_characters_niko_n   sprite_characters_niko_niko_
     0015726F  _sprite_characters_niko_niko_3_t   sprite_characters_niko_niko_
     001572F1  ___func_sprite_characters_niko_n   sprite_characters_niko_niko_
     001572F1  _sprite_characters_niko_niko_3_m   sprite_characters_niko_niko_
     001572FD  _sprite_characters_niko_niko_3_m   sprite_characters_niko_niko_
     00157309  _sprite_characters_niko_niko_3_m   sprite_characters_niko_niko_
     00157315  _sprite_characters_niko_niko_3_m   sprite_characters_niko_niko_
ASxxxx Linker V03.00 + NoICE + sdld,  page 79.
Hexadecimal  [32-Bits]

Area                                    Addr        Size        Decimal Bytes (Attributes)
--------------------------------        ----        ----        ------- ----- ------------
_CODE_21                            00154000    00004000 =       16384. bytes (REL,CON)

      Value  Global                              Global Defined In Module
      -----  --------------------------------   ------------------------
     00157321  _sprite_characters_niko_niko_3_m   sprite_characters_niko_niko_
     0015732D  _sprite_characters_niko_niko_3_a   sprite_characters_niko_niko_
     0015733D  _sprite_characters_niko_niko_3_a   sprite_characters_niko_niko_
     0015733F  _sprite_characters_niko_niko_3     sprite_characters_niko_niko_
     00157352  ___func_sprite_computer_computer   sprite_computer_computer_of_
     00157352  _sprite_computer_computer_of_til   sprite_computer_computer_of_
     00157394  ___func_sprite_computer_computer   sprite_computer_computer_of
     00157394  _sprite_computer_computer_of_met   sprite_computer_computer_of
     001573A0  _sprite_computer_computer_of_met   sprite_computer_computer_of
     001573A2  _sprite_computer_computer_of_ani   sprite_computer_computer_of
     001573B2  _sprite_computer_computer_of_ani   sprite_computer_computer_of
     001573B4  _sprite_computer_computer_of       sprite_computer_computer_of
     001573C7  ___func_sprite_cutscenes_niko_fa   sprite_cutscenes_niko_face__
     001573C7  _sprite_cutscenes_niko_face__til   sprite_cutscenes_niko_face__
     00157409  ___func_sprite_cutscenes_niko_fa   sprite_cutscenes_niko_face_
     00157409  _sprite_cutscenes_niko_face__met   sprite_cutscenes_niko_face_
     00157415  _sprite_cutscenes_niko_face__met   sprite_cutscenes_niko_face_
     00157417  _sprite_cutscenes_niko_face__ani   sprite_cutscenes_niko_face_
     00157427  _sprite_cutscenes_niko_face__ani   sprite_cutscenes_niko_face_
     00157429  _sprite_cutscenes_niko_face_       sprite_cutscenes_niko_face_
     0015743C  ___func_sprite_faces_louis_maxne   sprite_faces_louis_maxnexus_
     0015743C  _sprite_faces_louis_maxnexus_til   sprite_faces_louis_maxnexus_
     0015747E  ___func_sprite_faces_louis_maxne   sprite_faces_louis_maxnexus
     0015747E  _sprite_faces_louis_maxnexus_met   sprite_faces_louis_maxnexus
     0015748A  _sprite_faces_louis_maxnexus_met   sprite_faces_louis_maxnexus
     0015748C  _sprite_faces_louis_maxnexus_ani   sprite_faces_louis_maxnexus
     0015749C  _sprite_faces_louis_maxnexus_ani   sprite_faces_louis_maxnexus
     0015749E  _sprite_faces_louis_maxnexus       sprite_faces_louis_maxnexus
     001574B1  ___func_sprite_faces_nikoamazed_   sprite_faces_nikoamazed_tile
     001574B1  _sprite_faces_nikoamazed_tileset   sprite_faces_nikoamazed_tile
     001574F3  ___func_sprite_faces_nikoamazed    sprite_faces_nikoamazed
     001574F3  _sprite_faces_nikoamazed_metaspr   sprite_faces_nikoamazed
     001574FF  _sprite_faces_nikoamazed_metaspr   sprite_faces_nikoamazed
     00157501  _sprite_faces_nikoamazed_animati   sprite_faces_nikoamazed
     00157511  _sprite_faces_nikoamazed_animati   sprite_faces_nikoamazed
     00157513  _sprite_faces_nikoamazed           sprite_faces_nikoamazed
     00157526  ___func_sprite_fire_starts_start   sprite_fire_starts_start_fi_
     00157526  _sprite_fire_starts_start_fi_0_t   sprite_fire_starts_start_fi_
     001575A8  ___func_sprite_fire_starts_start   sprite_fire_starts_start_fi_
     001575A8  _sprite_fire_starts_start_fi_0_m   sprite_fire_starts_start_fi_
     001575B0  _sprite_fire_starts_start_fi_0_m   sprite_fire_starts_start_fi_
     001575B8  _sprite_fire_starts_start_fi_0_m   sprite_fire_starts_start_fi_
     001575C0  _sprite_fire_starts_start_fi_0_m   sprite_fire_starts_start_fi_
     001575C8  _sprite_fire_starts_start_fi_0_m   sprite_fire_starts_start_fi_
     001575D0  _sprite_fire_starts_start_fi_0_a   sprite_fire_starts_start_fi_
     001575E0  _sprite_fire_starts_start_fi_0_a   sprite_fire_starts_start_fi_
     001575E2  _sprite_fire_starts_start_fi_0     sprite_fire_starts_start_fi_
     001575F5  ___func_sprite_fire_starts_start   sprite_fire_starts_start_sp
     001575F5  _sprite_fire_starts_start_sp_met   sprite_fire_starts_start_sp
     00157601  _sprite_fire_starts_start_sp_met   sprite_fire_starts_start_sp
     0015760D  _sprite_fire_starts_start_sp_met   sprite_fire_starts_start_sp
ASxxxx Linker V03.00 + NoICE + sdld,  page 80.
Hexadecimal  [32-Bits]

Area                                    Addr        Size        Decimal Bytes (Attributes)
--------------------------------        ----        ----        ------- ----- ------------
_CODE_21                            00154000    00004000 =       16384. bytes (REL,CON)

      Value  Global                              Global Defined In Module
      -----  --------------------------------   ------------------------
     00157619  _sprite_fire_starts_start_sp_met   sprite_fire_starts_start_sp
     00157621  _sprite_fire_starts_start_sp_ani   sprite_fire_starts_start_sp
     00157631  _sprite_fire_starts_start_sp_ani   sprite_fire_starts_start_sp
     00157633  _sprite_fire_starts_start_sp       sprite_fire_starts_start_sp
     00157646  ___func_sprite_icons_item_start_   sprite_icons_item_start_bot_
     00157646  _sprite_icons_item_start_bot_0_t   sprite_icons_item_start_bot_
     00157688  ___func_sprite_icons_item_start_   sprite_icons_item_start_bot_
     00157688  _sprite_icons_item_start_bot_0_m   sprite_icons_item_start_bot_
     00157694  _sprite_icons_item_start_bot_0_m   sprite_icons_item_start_bot_
     00157696  _sprite_icons_item_start_bot_0_a   sprite_icons_item_start_bot_
     001576A6  _sprite_icons_item_start_bot_0_a   sprite_icons_item_start_bot_
     001576A8  _sprite_icons_item_start_bot_0     sprite_icons_item_start_bot_
     001576BB  ___func_sprite_icons_item_start_   sprite_icons_item_start_bot_
     001576BB  _sprite_icons_item_start_bot_til   sprite_icons_item_start_bot_
     001576FD  ___func_sprite_icons_item_start_   sprite_icons_item_start_bot
     001576FD  _sprite_icons_item_start_bot_met   sprite_icons_item_start_bot
     00157709  _sprite_icons_item_start_bot_met   sprite_icons_item_start_bot
     0015770B  _sprite_icons_item_start_bot_ani   sprite_icons_item_start_bot
     0015771B  _sprite_icons_item_start_bot_ani   sprite_icons_item_start_bot
     0015771D  _sprite_icons_item_start_bot       sprite_icons_item_start_bot
     00157730  ___func_sprite_icons_item_start_   sprite_icons_item_start_bra_
     00157730  _sprite_icons_item_start_bra_0_t   sprite_icons_item_start_bra_
     00157772  ___func_sprite_icons_item_start_   sprite_icons_item_start_bra_
     00157772  _sprite_icons_item_start_bra_0_m   sprite_icons_item_start_bra_
     0015777E  _sprite_icons_item_start_bra_0_m   sprite_icons_item_start_bra_
     00157780  _sprite_icons_item_start_bra_0_a   sprite_icons_item_start_bra_
     00157790  _sprite_icons_item_start_bra_0_a   sprite_icons_item_start_bra_
     00157792  _sprite_icons_item_start_bra_0     sprite_icons_item_start_bra_
     001577A5  ___func_sprite_icons_item_start_   sprite_icons_item_start_bra_
     001577A5  _sprite_icons_item_start_bra_til   sprite_icons_item_start_bra_
     001577E7  ___func_sprite_icons_item_start_   sprite_icons_item_start_bra
     001577E7  _sprite_icons_item_start_bra_met   sprite_icons_item_start_bra
     001577F3  _sprite_icons_item_start_bra_met   sprite_icons_item_start_bra
     001577F5  _sprite_icons_item_start_bra_ani   sprite_icons_item_start_bra
     00157805  _sprite_icons_item_start_bra_ani   sprite_icons_item_start_bra
     00157807  _sprite_icons_item_start_bra       sprite_icons_item_start_bra
     0015781A  ___func_sprite_icons_item_start_   sprite_icons_item_start_key_
     0015781A  _sprite_icons_item_start_key_til   sprite_icons_item_start_key_
     0015785C  ___func_sprite_icons_item_start_   sprite_icons_item_start_key
     0015785C  _sprite_icons_item_start_key_met   sprite_icons_item_start_key
     00157868  _sprite_icons_item_start_key_met   sprite_icons_item_start_key
     0015786A  _sprite_icons_item_start_key_ani   sprite_icons_item_start_key
     0015787A  _sprite_icons_item_start_key_ani   sprite_icons_item_start_key
     0015787C  _sprite_icons_item_start_key       sprite_icons_item_start_key
     0015788F  ___func_sprite_icons_item_start_   sprite_icons_item_start_lig_
     0015788F  _sprite_icons_item_start_lig_til   sprite_icons_item_start_lig_
     001578D1  ___func_sprite_icons_item_start_   sprite_icons_item_start_lig
     001578D1  _sprite_icons_item_start_lig_met   sprite_icons_item_start_lig
     001578DD  _sprite_icons_item_start_lig_met   sprite_icons_item_start_lig
     001578DF  _sprite_icons_item_start_lig_ani   sprite_icons_item_start_lig
     001578EF  _sprite_icons_item_start_lig_ani   sprite_icons_item_start_lig
ASxxxx Linker V03.00 + NoICE + sdld,  page 81.
Hexadecimal  [32-Bits]

Area                                    Addr        Size        Decimal Bytes (Attributes)
--------------------------------        ----        ----        ------- ----- ------------
_CODE_21                            00154000    00004000 =       16384. bytes (REL,CON)

      Value  Global                              Global Defined In Module
      -----  --------------------------------   ------------------------
     001578F1  _sprite_icons_item_start_lig       sprite_icons_item_start_lig
     00157904  ___func_sprite_icons_item_start_   sprite_icons_item_start_rem_
     00157904  _sprite_icons_item_start_rem_til   sprite_icons_item_start_rem_
     00157946  ___func_sprite_icons_item_start_   sprite_icons_item_start_tor_
     00157946  _sprite_icons_item_start_tor_til   sprite_icons_item_start_tor_
     00157988  ___func_sprite_mirror_gbc          sprite_mirror_gbc
     00157988  _sprite_mirror_gbc_metasprite_0    sprite_mirror_gbc
     001579B8  _sprite_mirror_gbc_metasprite_1    sprite_mirror_gbc
     001579C4  _sprite_mirror_gbc_metasprites     sprite_mirror_gbc
     001579C8  _sprite_mirror_gbc_animations      sprite_mirror_gbc
     001579D8  _sprite_mirror_gbc_animations_lo   sprite_mirror_gbc
     001579DA  _sprite_mirror_gbc                 sprite_mirror_gbc
     001579ED  ___func_sprite_mirror_gbc2         sprite_mirror_gbc2
     001579ED  _sprite_mirror_gbc2_metasprite_0   sprite_mirror_gbc2
     00157A21  _sprite_mirror_gbc2_metasprites    sprite_mirror_gbc2
     00157A23  _sprite_mirror_gbc2_animations     sprite_mirror_gbc2
     00157A33  _sprite_mirror_gbc2_animations_l   sprite_mirror_gbc2
     00157A35  _sprite_mirror_gbc2                sprite_mirror_gbc2
     00157A48  ___func_sprite_static_tileset      sprite_static_tileset
     00157A48  _sprite_static_tileset             sprite_static_tileset
     00157A8A  ___func_sprite_text_sprite_numbe   sprite_text_sprite_numbers__
     00157A8A  _sprite_text_sprite_numbers__0_m   sprite_text_sprite_numbers__
     00157A96  _sprite_text_sprite_numbers__0_m   sprite_text_sprite_numbers__
     00157AA2  _sprite_text_sprite_numbers__0_m   sprite_text_sprite_numbers__
     00157AAE  _sprite_text_sprite_numbers__0_m   sprite_text_sprite_numbers__
     00157ABA  _sprite_text_sprite_numbers__0_m   sprite_text_sprite_numbers__
     00157AC6  _sprite_text_sprite_numbers__0_m   sprite_text_sprite_numbers__
     00157AD2  _sprite_text_sprite_numbers__0_m   sprite_text_sprite_numbers__
     00157ADE  _sprite_text_sprite_numbers__0_m   sprite_text_sprite_numbers__
     00157AEA  _sprite_text_sprite_numbers__0_m   sprite_text_sprite_numbers__
     00157AF6  _sprite_text_sprite_numbers__0_m   sprite_text_sprite_numbers__
     00157B02  _sprite_text_sprite_numbers__0_m   sprite_text_sprite_numbers__
     00157B16  _sprite_text_sprite_numbers__0_a   sprite_text_sprite_numbers__
     00157B26  _sprite_text_sprite_numbers__0_a   sprite_text_sprite_numbers__
     00157B28  _sprite_text_sprite_numbers__0     sprite_text_sprite_numbers__
     00157B3B  ___func_sprite_text_sprite_numbe   sprite_text_sprite_numbers_
     00157B3B  _sprite_text_sprite_numbers__met   sprite_text_sprite_numbers_
     00157B47  _sprite_text_sprite_numbers__met   sprite_text_sprite_numbers_
     00157B53  _sprite_text_sprite_numbers__met   sprite_text_sprite_numbers_
     00157B5F  _sprite_text_sprite_numbers__met   sprite_text_sprite_numbers_
     00157B6B  _sprite_text_sprite_numbers__met   sprite_text_sprite_numbers_
     00157B77  _sprite_text_sprite_numbers__met   sprite_text_sprite_numbers_
     00157B83  _sprite_text_sprite_numbers__met   sprite_text_sprite_numbers_
     00157B8F  _sprite_text_sprite_numbers__met   sprite_text_sprite_numbers_
     00157B9B  _sprite_text_sprite_numbers__met   sprite_text_sprite_numbers_
     00157BA7  _sprite_text_sprite_numbers__met   sprite_text_sprite_numbers_
     00157BB3  _sprite_text_sprite_numbers__met   sprite_text_sprite_numbers_
     00157BC7  _sprite_text_sprite_numbers__ani   sprite_text_sprite_numbers_
     00157BD7  _sprite_text_sprite_numbers__ani   sprite_text_sprite_numbers_
     00157BD9  _sprite_text_sprite_numbers_       sprite_text_sprite_numbers_
     00157BEC  _trigger_0_interact                trigger_0_interact
ASxxxx Linker V03.00 + NoICE + sdld,  page 82.
Hexadecimal  [32-Bits]

Area                                    Addr        Size        Decimal Bytes (Attributes)
--------------------------------        ----        ----        ------- ----- ------------
_CODE_21                            00154000    00004000 =       16384. bytes (REL,CON)

      Value  Global                              Global Defined In Module
      -----  --------------------------------   ------------------------
     00157C45  _trigger_26_interact               trigger_26_interact
     00157CAA  _trigger_31_interact               trigger_31_interact
     00157CFE  _trigger_33_interact               trigger_33_interact
     00157D52  _trigger_34_interact               trigger_34_interact
     00157D88  _trigger_35_interact               trigger_35_interact
     00157DC8  _trigger_39_interact               trigger_39_interact
     00157E52  _trigger_40_interact               trigger_40_interact
     00157EDC  _trigger_42_interact               trigger_42_interact
     00157F16  _trigger_43_interact               trigger_43_interact
     00157F53  _trigger_47_interact               trigger_47_interact
     00157F6F  _trigger_52_interact               trigger_52_interact
     00157FAC  _trigger_77_interact               trigger_77_interact

ASxxxx Linker V03.00 + NoICE + sdld,  page 83.
Hexadecimal  [32-Bits]

Area                                    Addr        Size        Decimal Bytes (Attributes)
--------------------------------        ----        ----        ------- ----- ------------
_CODE_11                            000B4000    00004000 =       16384. bytes (REL,CON)

      Value  Global                              Global Defined In Module
      -----  --------------------------------   ------------------------
     000B4000  _CGBFadeToWhiteStep                fade_manager
     000B4039  _CGBFadeToBlackStep                fade_manager
     000B4074  _ApplyPaletteChangeColor           fade_manager
     000B40B8  _fade_speeds                       fade_manager
     000B40BF  _DMGFadeToWhiteStep                fade_manager
     000B40E2  _DMGFadeToBlackStep                fade_manager
     000B4107  _ApplyPaletteChangeDMG             fade_manager
     000B417E  _fade_init                         fade_manager
     000B41A6  _fade_in                           fade_manager
     000B41D7  _fade_out                          fade_manager
     000B4209  _fade_update                       fade_manager
     000B4263  _fade_applypalettechange           fade_manager
     000B427D  _fade_setspeed                     fade_manager
     000B428D  _fade_in_modal                     fade_manager
     000B42A7  _fade_out_modal                    fade_manager
     000B42C1  ___func_bg_pictures_b0_2_gbc_til   bg_pictures_b0_2_gbc_tileset
     000B42C1  _bg_pictures_b0_2_gbc_tileset      bg_pictures_b0_2_gbc_tileset
     000B4BC3  ___func_bg_pictures_b0_2_tileset   bg_pictures_b0_2_tileset
     000B4BC3  _bg_pictures_b0_2_tileset          bg_pictures_b0_2_tileset
     000B54B5  ___func_bg_pictures_b5_gb_alt_ti   bg_pictures_b5_gb_alt_tilese
     000B54B5  _bg_pictures_b5_gb_alt_tileset     bg_pictures_b5_gb_alt_tilese
     000B5D27  ___func_bg_pictures_b5_gbc_alt_t   bg_pictures_b5_gbc_alt_tiles
     000B5D27  _bg_pictures_b5_gbc_alt_tileset    bg_pictures_b5_gbc_alt_tiles
     000B6599  ___func_bg_pictures_b6_gb_alt_ti   bg_pictures_b6_gb_alt_tilese
     000B6599  _bg_pictures_b6_gb_alt_tileset     bg_pictures_b6_gb_alt_tilese
     000B6EAB  ___func_bg_pictures_b6_gbc_alt_t   bg_pictures_b6_gbc_alt_tiles
     000B6EAB  _bg_pictures_b6_gbc_alt_tileset    bg_pictures_b6_gbc_alt_tiles
     000B77BD  ___func_bg_pictures_b7_gbc_alt_t   bg_pictures_b7_gbc_alt_tiles
     000B77BD  _bg_pictures_b7_gbc_alt_tileset    bg_pictures_b7_gbc_alt_tiles
     000B7FFF  _script_input_13                   script_input_13
ASxxxx Linker V03.00 + NoICE + sdld,  page 84.
Hexadecimal  [32-Bits]

Area                                    Addr        Size        Decimal Bytes (Attributes)
--------------------------------        ----        ----        ------- ----- ------------
_CODE_20                            00144000    00004000 =       16384. bytes (REL,CON)

      Value  Global                              Global Defined In Module
      -----  --------------------------------   ------------------------
     00144068  _save_sram_banks                   
     001440F0  _erase_flash                       
     00144106  _music_init_driver                 music_manager
     0014415D  _music_init_events                 music_manager
     00144199  _music_events_poll                 music_manager
     001441C3  _music_pause                       music_manager
     001441E8  _palette_init                      palette
     00144221  _CGBZeroPalette                    palette
     00144236  _SGBTransferPalettes               palette
     001442C3  ___func_VM_MATH                    vm_math
     001442C3  _vm_sin_scale                      vm_math
     00144365  _vm_cos_scale                      vm_math
     00144409  ___func_VM_MUSIC                   vm_music
     00144409  _vm_music_play                     vm_music
     0014444D  _vm_music_stop                     vm_music
     0014446F  _vm_music_mute                     vm_music
     001444A5  _vm_music_routine                  vm_music
     001444CC  _vm_music_setpos                   vm_music
     001444D6  _vm_sound_mastervol                vm_music
     001444DC  _vm_sfx_play                       vm_music
     0014454F  ___func_VM_PROJECTILE              vm_projectiles
     0014454F  _vm_projectile_launch              vm_projectiles
     00144590  _vm_projectile_load_type           vm_projectiles
     0014463B  ___func_VM_RTC                     vm_rtc
     0014463B  _vm_rtc_latch                      vm_rtc
     00144643  _vm_rtc_get                        vm_rtc
     001446AC  _vm_rtc_set                        vm_rtc
     00144714  _vm_rtc_start                      vm_rtc
     00144737  _actor_0_update                    actor_0_update
     001447F6  _actor_11_update                   actor_11_update
     001448B5  _actor_12_interact                 actor_12_interact
     001449E9  _actor_2_interact                  actor_2_interact
     00144AA4  _actor_22_interact                 actor_22_interact
     00144B9B  _actor_24_interact                 actor_24_interact
     00144CC2  _actor_29_update                   actor_29_update
     00144D81  _actor_35_interact                 actor_35_interact
     00144E78  _actor_36_interact                 actor_36_interact
     00144F97  _actor_4_update                    actor_4_update
     00145056  _actor_40_update                   actor_40_update
     0014516A  _actor_44_interact                 actor_44_interact
     00145278  _actor_5_interact                  actor_5_interact
     0014539F  _actor_7_interact                  actor_7_interact
     001454AD  _actor_comments_0_update           actor_comments_0_update
     0014559C  _actor_current_interacted_sp_upd   actor_current_interacted_sp_
     001456C9  _actor_cursor_update               actor_cursor_update
     001457A3  _actor_interaction_1_sprite_upda   actor_interaction_1_sprite_u
     00145862  _actor_interaction_sprite_0_upda   actor_interaction_sprite_0_u
     00145921  _actor_interaction_sprite_1_upda   actor_interaction_sprite_1_u
     001459E0  _actor_interaction_sprite_3_upda   actor_interaction_sprite_3_u
     00145A9F  _actor_spark_interact              actor_spark_interact
ASxxxx Linker V03.00 + NoICE + sdld,  page 85.
Hexadecimal  [32-Bits]

Area                                    Addr        Size        Decimal Bytes (Attributes)
--------------------------------        ----        ----        ------- ----- ------------
_CODE_20                            00144000    00004000 =       16384. bytes (REL,CON)

      Value  Global                              Global Defined In Module
      -----  --------------------------------   ------------------------
     00145BC1  ___func_bg_pictures_b9_gb_alt_ti   bg_pictures_b9_gb_alt_tilese
     00145BC1  _bg_pictures_b9_gb_alt_tileset     bg_pictures_b9_gb_alt_tilese
     00145CD3  _scene_basement_stairs_init        scene_basement_stairs_init
     00145E0A  ___func_scene_dev_room_2_actors    scene_dev_room_2_actors
     00145E0A  _scene_dev_room_2_actors           scene_dev_room_2_actors
     00145EDA  ___func_scene_input_password_2_0   scene_input_password_2_0_act
     00145EDA  _scene_input_password_2_0_actors   scene_input_password_2_0_act
     00145FDE  ___func_scene_inventory_tester_a   scene_inventory_tester_actor
     00145FDE  _scene_inventory_tester_actors     scene_inventory_tester_actor
     001460AE  ___func_scene_item_screen_1_old_   scene_item_screen_1_old_acto
     001460AE  _scene_item_screen_1_old_actors    scene_item_screen_1_old_acto
     001461E6  ___func_scene_start_dark_bathroo   scene_start_dark_bathroom_ac
     001461E6  _scene_start_dark_bathroom_actor   scene_start_dark_bathroom_ac
     001462EA  _script_input_0                    script_input_0
     001463A7  _script_input_10                   script_input_10
     001464E4  ___func_sprite_characters_niko_n   sprite_characters_niko_niko_
     001464E4  _sprite_characters_niko_niko_0_m   sprite_characters_niko_niko_
     001464F8  _sprite_characters_niko_niko_0_m   sprite_characters_niko_niko_
     00146508  _sprite_characters_niko_niko_0_m   sprite_characters_niko_niko_
     00146514  _sprite_characters_niko_niko_0_m   sprite_characters_niko_niko_
     00146524  _sprite_characters_niko_niko_0_m   sprite_characters_niko_niko_
     00146530  _sprite_characters_niko_niko_0_m   sprite_characters_niko_niko_
     0014653C  _sprite_characters_niko_niko_0_m   sprite_characters_niko_niko_
     0014654C  _sprite_characters_niko_niko_0_m   sprite_characters_niko_niko_
     0014655C  _sprite_characters_niko_niko_0_m   sprite_characters_niko_niko_
     00146568  _sprite_characters_niko_niko_0_m   sprite_characters_niko_niko_
     00146574  _sprite_characters_niko_niko_0_m   sprite_characters_niko_niko_
     00146584  _sprite_characters_niko_niko_0_m   sprite_characters_niko_niko_
     00146594  _sprite_characters_niko_niko_0_m   sprite_characters_niko_niko_
     001465AC  _sprite_characters_niko_niko_0_a   sprite_characters_niko_niko_
     001465BC  _sprite_characters_niko_niko_0_a   sprite_characters_niko_niko_
     001465BE  _sprite_characters_niko_niko_0     sprite_characters_niko_niko_
     001465D1  ___func_sprite_characters_niko_n   sprite_characters_niko_niko
     001465D1  _sprite_characters_niko_niko_met   sprite_characters_niko_niko
     001465E1  _sprite_characters_niko_niko_met   sprite_characters_niko_niko
     001465F1  _sprite_characters_niko_niko_met   sprite_characters_niko_niko
     001465FD  _sprite_characters_niko_niko_met   sprite_characters_niko_niko
     0014660D  _sprite_characters_niko_niko_met   sprite_characters_niko_niko
     0014661D  _sprite_characters_niko_niko_met   sprite_characters_niko_niko
     0014662D  _sprite_characters_niko_niko_met   sprite_characters_niko_niko
     0014663D  _sprite_characters_niko_niko_met   sprite_characters_niko_niko
     0014664D  _sprite_characters_niko_niko_met   sprite_characters_niko_niko
     00146659  _sprite_characters_niko_niko_met   sprite_characters_niko_niko
     00146665  _sprite_characters_niko_niko_met   sprite_characters_niko_niko
     00146675  _sprite_characters_niko_niko_met   sprite_characters_niko_niko
     00146685  _sprite_characters_niko_niko_met   sprite_characters_niko_niko
     0014669D  _sprite_characters_niko_niko_ani   sprite_characters_niko_niko
     001466AD  _sprite_characters_niko_niko_ani   sprite_characters_niko_niko
     001466AF  _sprite_characters_niko_niko       sprite_characters_niko_niko
     001466C2  ___func_sprite_fire_starts_start   sprite_fire_starts_start_sp_
     001466C2  _sprite_fire_starts_start_sp_til   sprite_fire_starts_start_sp_
ASxxxx Linker V03.00 + NoICE + sdld,  page 86.
Hexadecimal  [32-Bits]

Area                                    Addr        Size        Decimal Bytes (Attributes)
--------------------------------        ----        ----        ------- ----- ------------
_CODE_20                            00144000    00004000 =       16384. bytes (REL,CON)

      Value  Global                              Global Defined In Module
      -----  --------------------------------   ------------------------
     00146784  ___func_sprite_mirror_gbc_tilese   sprite_mirror_gbc_tileset
     00146784  _sprite_mirror_gbc_tileset         sprite_mirror_gbc_tileset
     00146846  ___func_sprite_mirror_gbc2_tiles   sprite_mirror_gbc2_tileset
     00146846  _sprite_mirror_gbc2_tileset        sprite_mirror_gbc2_tileset
     00146928  _trigger_29_interact               trigger_29_interact
     00146A56  _trigger_30_interact               trigger_30_interact
     00146B84  _trigger_58_interact               trigger_58_interact
     00146C98  _trigger_59_interact               trigger_59_interact
     00146DAC  _trigger_60_interact               trigger_60_interact
     00146EC0  _trigger_61_interact               trigger_61_interact
     00146FD4  _trigger_62_interact               trigger_62_interact
     001470E8  _trigger_63_interact               trigger_63_interact
     001471FC  _trigger_64_interact               trigger_64_interact
     00147310  _trigger_65_interact               trigger_65_interact
     00147424  _trigger_66_interact               trigger_66_interact
     00147538  _trigger_67_interact               trigger_67_interact
     0014764C  _trigger_68_interact               trigger_68_interact
     00147760  _trigger_69_interact               trigger_69_interact
     00147874  _trigger_70_interact               trigger_70_interact
     00147988  _trigger_71_interact               trigger_71_interact
     00147A9C  _trigger_72_interact               trigger_72_interact
     00147BB0  _trigger_73_interact               trigger_73_interact
     00147CC4  _trigger_74_interact               trigger_74_interact
     00147DD8  _trigger_75_interact               trigger_75_interact
     00147EEC  _trigger_76_interact               trigger_76_interact
ASxxxx Linker V03.00 + NoICE + sdld,  page 87.
Hexadecimal  [32-Bits]

Area                                    Addr        Size        Decimal Bytes (Attributes)
--------------------------------        ----        ----        ------- ----- ------------
_HEADER_SIO0                        00000000    00000004 =           4. bytes (ABS,CON)

      Value  Global                              Global Defined In Module
      -----  --------------------------------   ------------------------
ASxxxx Linker V03.00 + NoICE + sdld,  page 88.
Hexadecimal  [32-Bits]

Area                                    Addr        Size        Decimal Bytes (Attributes)
--------------------------------        ----        ----        ------- ----- ------------
_HEADER_TIMER0                      00000000    00000004 =           4. bytes (ABS,CON)

      Value  Global                              Global Defined In Module
      -----  --------------------------------   ------------------------
ASxxxx Linker V03.00 + NoICE + sdld,  page 89.
Hexadecimal  [32-Bits]

Area                                    Addr        Size        Decimal Bytes (Attributes)
--------------------------------        ----        ----        ------- ----- ------------
_CODE_13                            000D4000    00004000 =       16384. bytes (REL,CON)

      Value  Global                              Global Defined In Module
      -----  --------------------------------   ------------------------
     000D4000  _scroll_init                       scroll
     000D402A  _scroll_reset                      scroll
     000D404A  _scroll_update                     scroll
     000D4161  _scroll_viewport                   scroll
     000D460F  _scroll_repaint                    scroll
     000D461F  _scroll_render_rows                scroll
     000D46A7  _scroll_queue_row                  scroll
     000D46CC  _scroll_queue_col                  scroll
     000D4718  ___func_VM_UI                      vm_ui
     000D4718  _vm_display_text                   vm_ui
     000D4786  _vm_switch_text_layer              vm_ui
     000D47A0  _vm_overlay_setpos                 vm_ui
     000D47BA  _vm_overlay_wait                   vm_ui
     000D484B  _vm_overlay_move_to                vm_ui
     000D488F  _vm_overlay_set_scroll             vm_ui
     000D48CC  _vm_overlay_clear                  vm_ui
     000D49A5  _vm_overlay_show                   vm_ui
     000D49F3  _vm_choice                         vm_ui
     000D4B0E  _vm_set_font                       vm_ui
     000D4B3F  _vm_overlay_scroll                 vm_ui
     000D4B9F  _vm_overlay_set_submap             vm_ui
     000D4C0F  _vm_overlay_set_submap_ex          vm_ui
     000D4D12  _vm_overlay_set_map                vm_ui
     000D4E76  _vm_set_text_sound                 vm_ui
     000D4E8F  ___func_scene_basement_stairs_ol   scene_basement_stairs_old_co
     000D4E8F  _scene_basement_stairs_old_colli   scene_basement_stairs_old_co
     000D565F  ___func_scene_basement_stairs_wi   scene_basement_stairs_with__
     000D565F  _scene_basement_stairs_with__col   scene_basement_stairs_with__
     000D5E2F  ___func_scene_start_dark_bedroom   scene_start_dark_bedroom_col
     000D5E2F  _scene_start_dark_bedroom_collis   scene_start_dark_bedroom_col
     000D62DF  ___func_sound_pc_off_wav           sound_pc_off_wav
     000D62DF  _sound_pc_off_wav                  sound_pc_off_wav
     000D6A55  ___func_sprite_actor               sprite_actor
     000D6A55  _sprite_actor_metasprite_0         sprite_actor
     000D6A61  _sprite_actor_metasprite_1         sprite_actor
     000D6A6D  _sprite_actor_metasprite_2         sprite_actor
     000D6A79  _sprite_actor_metasprite_3         sprite_actor
     000D6A85  _sprite_actor_metasprites          sprite_actor
     000D6A8D  _sprite_actor_animations           sprite_actor
     000D6A9D  _sprite_actor_animations_lookup    sprite_actor
     000D6A9F  _sprite_actor                      sprite_actor
     000D6AB2  _adventure_init                    adventure
     000D6AC7  _adventure_update                  adventure
     000D71DE  _shmup_init                        shmup
     000D727A  _shmup_update                      shmup
     000D78F9  _topdown_init                      topdown
     000D7990  _topdown_update                    topdown

ASxxxx Linker V03.00 + NoICE + sdld,  page 90.
Hexadecimal  [32-Bits]

Area                                    Addr        Size        Decimal Bytes (Attributes)
--------------------------------        ----        ----        ------- ----- ------------
_CODE_4                             00044000    00004000 =       16384. bytes (REL,CON)

      Value  Global                              Global Defined In Module
      -----  --------------------------------   ------------------------
     00044000  ___func_VM_ACTOR                   vm_actor
     00044000  _vm_actor_move_to                  vm_actor
     0004499D  _vm_actor_move_cancel              vm_actor
     000449D3  _vm_actor_activate                 vm_actor
     00044A25  _vm_actor_deactivate               vm_actor
     00044A76  _vm_actor_terminate_update         vm_actor
     00044ABD  _vm_actor_set_dir                  vm_actor
     00044B06  _vm_actor_set_anim                 vm_actor
     00044B93  _vm_actor_set_pos                  vm_actor
     00044C0D  _vm_actor_get_pos                  vm_actor
     00044C7C  _vm_actor_get_dir                  vm_actor
     00044CF6  _vm_actor_get_angle                vm_actor
     00044D77  _vm_actor_emote                    vm_actor
     00044E3B  _vm_actor_set_bounds               vm_actor
     00044E99  _vm_actor_set_spritesheet          vm_actor
     00044F68  _vm_actor_replace_tile             vm_actor
     00044FD2  _vm_actor_set_anim_tick            vm_actor
     00045010  _vm_actor_set_move_speed           vm_actor
     0004504E  _vm_actor_set_anim_frame           vm_actor
     00045092  _vm_actor_get_anim_frame           vm_actor
     000450DB  _vm_actor_set_anim_set             vm_actor
     00045168  _vm_actor_set_spritesheet_by_ref   vm_actor
     00045276  _vm_actor_set_flags                vm_actor
     00045324  _actor_comments_0_interact         actor_comments_0_interact
     00045326  ___func_bg_barrens_docksgb_tilem   bg_barrens_docksgb_tilemap
     00045326  _bg_barrens_docksgb_tilemap        bg_barrens_docksgb_tilemap
     000466D6  ___func_scene_docks_collisions     scene_docks_collisions
     000466D6  _scene_docks_collisions            scene_docks_collisions
     00047A86  _scene_gbc_start_dark_bathro_ini   scene_gbc_start_dark_bathro_
     00047B00  ___func_sound_pc_denied_wav        sound_pc_denied_wav
     00047B00  _sound_pc_denied_wav               sound_pc_denied_wav

ASxxxx Linker V03.00 + NoICE + sdld,  page 91.
Hexadecimal  [32-Bits]

Area                                    Addr        Size        Decimal Bytes (Attributes)
--------------------------------        ----        ----        ------- ----- ------------
_CODE_14                            000E4000    00004000 =       16384. bytes (REL,CON)

      Value  Global                              Global Defined In Module
      -----  --------------------------------   ------------------------
     000E4000  ___func_VM_GAMEBOY                 vm_gameboy
     000E4000  _vm_set_sprites_visible            vm_gameboy
     000E4017  _vm_input_wait                     vm_gameboy
     000E4040  _vm_context_prepare                vm_gameboy
     000E406B  _vm_input_attach                   vm_gameboy
     000E4081  _vm_input_detach                   vm_gameboy
     000E4095  _vm_input_get                      vm_gameboy
     000E40C9  _vm_fade                           vm_gameboy
     000E40FB  _vm_timer_prepare                  vm_gameboy
     000E4126  _vm_timer_set                      vm_gameboy
     000E4141  _vm_timer_stop                     vm_gameboy
     000E4155  _vm_timer_reset                    vm_gameboy
     000E416C  _vm_get_tile_xy                    vm_gameboy
     000E4255  _vm_replace_tile                   vm_gameboy
     000E42FE  _vm_poll                           vm_gameboy
     000E43D0  _vm_set_sprite_mode                vm_gameboy
     000E43E4  _vm_replace_tile_xy                vm_gameboy
     000E4506  _vm_rumble                         vm_gameboy
     000E4526  _vm_load_tiles                     vm_gameboy
     000E453B  _vm_load_tileset                   vm_gameboy
     000E4658  _actor_item_2_interact             actor_item_2_interact
     000E4BEE  ___func_bg_menus_newinvmenu_tile   bg_menus_newinvmenu_tilemap
     000E4BEE  _bg_menus_newinvmenu_tilemap       bg_menus_newinvmenu_tilemap
     000E51F2  ___func_bg_pictures_b8_gbc_alt_t   bg_pictures_b8_gbc_alt_tiles
     000E51F2  _bg_pictures_b8_gbc_alt_tileset    bg_pictures_b8_gbc_alt_tiles
     000E5894  ___func_bg_startinghome_livingro   bg_startinghome_livingroomg_
     000E5894  _bg_startinghome_livingroomg_til   bg_startinghome_livingroomg_
     000E5EAC  ___func_bg_startinghome_livingro   bg_startinghome_livingroomg_
     000E5EAC  _bg_startinghome_livingroomg_til   bg_startinghome_livingroomg_
     000E64C4  ___func_scene_b6_gbc_sprites       scene_b6_gbc_sprites
     000E64C4  _scene_b6_gbc_sprites              scene_b6_gbc_sprites
     000E64C7  ___func_scene_item_screen_2_new_   scene_item_screen_2_new_coll
     000E64C7  _scene_item_screen_2_new_collisi   scene_item_screen_2_new_coll
     000E6ACB  ___func_scene_start_dark_livingr   scene_start_dark_livingroom_
     000E6ACB  _scene_start_dark_livingroom_act   scene_start_dark_livingroom_
     000E6D07  ___func_scene_start_dark_livingr   scene_start_dark_livingroom_
     000E6D07  _scene_start_dark_livingroom_col   scene_start_dark_livingroom_
     000E731F  _script_item_interactable_in       script_item_interactable_in
     000E791A  ___func_sound_pc_on_wav            sound_pc_on_wav
     000E791A  _sound_pc_on_wav                   sound_pc_on_wav

ASxxxx Linker V03.00 + NoICE + sdld,  page 92.
Hexadecimal  [32-Bits]

Area                                    Addr        Size        Decimal Bytes (Attributes)
--------------------------------        ----        ----        ------- ----- ------------
_CODE_19                            00134000    00004000 =       16384. bytes (REL,CON)

      Value  Global                              Global Defined In Module
      -----  --------------------------------   ------------------------
     00134000  _itoa_fmt                          vm_ui_a
     00134039  .utoa_fmt                          vm_ui_a
     001340E3  ___func_bg_new_folder_wip_baseme   bg_new_folder_wip_basement__
     001340E3  _bg_new_folder_wip_basement__2_t   bg_new_folder_wip_basement__
     00134235  ___func_bg_pictures_cg_wake4_gbc   bg_pictures_cg_wake4_gbc_til
     00134235  _bg_pictures_cg_wake4_gbc_tilema   bg_pictures_cg_wake4_gbc_til
     0013439D  ___func_bg_pictures_cg_wake5_gb_   bg_pictures_cg_wake5_gb_tile
     0013439D  _bg_pictures_cg_wake5_gb_tilemap   bg_pictures_cg_wake5_gb_tile
     00134505  ___func_bg_pictures_cg_wake5_gbc   bg_pictures_cg_wake5_gbc_til
     00134505  _bg_pictures_cg_wake5_gbc_tilema   bg_pictures_cg_wake5_gbc_til
     0013466D  ___func_bg_pictures_cg_wake5_gbc   bg_pictures_cg_wake5_gbc_til
     0013466D  _bg_pictures_cg_wake5_gbc_tilema   bg_pictures_cg_wake5_gbc_til
     001347D5  ___func_bg_placeholder_tilemap     bg_placeholder_tilemap
     001347D5  _bg_placeholder_tilemap            bg_placeholder_tilemap
     0013493D  ___func_scene_b3_collisions        scene_b3_collisions
     0013493D  _scene_b3_collisions               scene_b3_collisions
     00134AA5  ___func_scene_b3_gbc_collisions    scene_b3_gbc_collisions
     00134AA5  _scene_b3_gbc_collisions           scene_b3_gbc_collisions
     00134C0D  ___func_scene_b4_collisions        scene_b4_collisions
     00134C0D  _scene_b4_collisions               scene_b4_collisions
     00134D75  ___func_scene_b4_gbc_collisions    scene_b4_gbc_collisions
     00134D75  _scene_b4_gbc_collisions           scene_b4_gbc_collisions
     00134EDD  ___func_scene_b5_collisions        scene_b5_collisions
     00134EDD  _scene_b5_collisions               scene_b5_collisions
     00135045  ___func_scene_b5_gbc_collisions    scene_b5_gbc_collisions
     00135045  _scene_b5_gbc_collisions           scene_b5_gbc_collisions
     001351AD  ___func_scene_b6_collisions        scene_b6_collisions
     001351AD  _scene_b6_collisions               scene_b6_collisions
     00135315  ___func_scene_b6_gbc_collisions    scene_b6_gbc_collisions
     00135315  _scene_b6_gbc_collisions           scene_b6_gbc_collisions
     0013547D  ___func_scene_b7_collisions        scene_b7_collisions
     0013547D  _scene_b7_collisions               scene_b7_collisions
     001355E5  ___func_scene_b7_gbc_collisions    scene_b7_gbc_collisions
     001355E5  _scene_b7_gbc_collisions           scene_b7_gbc_collisions
     0013574D  ___func_scene_b8_collisions        scene_b8_collisions
     0013574D  _scene_b8_collisions               scene_b8_collisions
     001358B5  ___func_scene_b8_gbc_collisions    scene_b8_gbc_collisions
     001358B5  _scene_b8_gbc_collisions           scene_b8_gbc_collisions
     00135A1D  ___func_scene_b9_collisions        scene_b9_collisions
     00135A1D  _scene_b9_collisions               scene_b9_collisions
     00135B85  ___func_scene_b9_gbc_collisions    scene_b9_gbc_collisions
     00135B85  _scene_b9_gbc_collisions           scene_b9_gbc_collisions
     00135CED  ___func_scene_cg_door_1_collisio   scene_cg_door_1_collisions
     00135CED  _scene_cg_door_1_collisions        scene_cg_door_1_collisions
     00135E55  ___func_scene_cg_door_2_collisio   scene_cg_door_2_collisions
     00135E55  _scene_cg_door_2_collisions        scene_cg_door_2_collisions
     00135FBD  ___func_scene_cg_wake_1_collisio   scene_cg_wake_1_collisions
     00135FBD  _scene_cg_wake_1_collisions        scene_cg_wake_1_collisions
     00136125  ___func_scene_cg_wake_2_collisio   scene_cg_wake_2_collisions
     00136125  _scene_cg_wake_2_collisions        scene_cg_wake_2_collisions
ASxxxx Linker V03.00 + NoICE + sdld,  page 93.
Hexadecimal  [32-Bits]

Area                                    Addr        Size        Decimal Bytes (Attributes)
--------------------------------        ----        ----        ------- ----- ------------
_CODE_19                            00134000    00004000 =       16384. bytes (REL,CON)

      Value  Global                              Global Defined In Module
      -----  --------------------------------   ------------------------
     0013628D  ___func_scene_cg_wake_3_collisio   scene_cg_wake_3_collisions
     0013628D  _scene_cg_wake_3_collisions        scene_cg_wake_3_collisions
     001363F5  ___func_scene_cg_wake_4_collisio   scene_cg_wake_4_collisions
     001363F5  _scene_cg_wake_4_collisions        scene_cg_wake_4_collisions
     0013655D  ___func_scene_cg_wake_5_collisio   scene_cg_wake_5_collisions
     0013655D  _scene_cg_wake_5_collisions        scene_cg_wake_5_collisions
     001366C5  ___func_scene_dev_room_2_collisi   scene_dev_room_2_collisions
     001366C5  _scene_dev_room_2_collisions       scene_dev_room_2_collisions
     0013682D  ___func_scene_dev_room_collision   scene_dev_room_collisions
     0013682D  _scene_dev_room_collisions         scene_dev_room_collisions
     00136995  ___func_scene_gbc_start_dark_bat   scene_gbc_start_dark_bathro_
     00136995  _scene_gbc_start_dark_bathro_col   scene_gbc_start_dark_bathro_
     00136AFD  ___func_scene_gbc_wake_01_collis   scene_gbc_wake_01_collisions
     00136AFD  _scene_gbc_wake_01_collisions      scene_gbc_wake_01_collisions
     00136C65  ___func_scene_gbc_wake_02_collis   scene_gbc_wake_02_collisions
     00136C65  _scene_gbc_wake_02_collisions      scene_gbc_wake_02_collisions
     00136DCD  ___func_scene_gbc_wake_03_collis   scene_gbc_wake_03_collisions
     00136DCD  _scene_gbc_wake_03_collisions      scene_gbc_wake_03_collisions
     00136F35  ___func_scene_gbc_wake_04_collis   scene_gbc_wake_04_collisions
     00136F35  _scene_gbc_wake_04_collisions      scene_gbc_wake_04_collisions
     0013709D  ___func_scene_gbc_wake_05_collis   scene_gbc_wake_05_collisions
     0013709D  _scene_gbc_wake_05_collisions      scene_gbc_wake_05_collisions
     00137205  ___func_scene_input_password_2_0   scene_input_password_2_0_col
     00137205  _scene_input_password_2_0_collis   scene_input_password_2_0_col
     0013736D  ___func_scene_input_password_old   scene_input_password_old__co
     0013736D  _scene_input_password_old__colli   scene_input_password_old__co
     001374D5  ___func_scene_inventory_tester_c   scene_inventory_tester_colli
     001374D5  _scene_inventory_tester_collisio   scene_inventory_tester_colli
     0013763D  ___func_scene_item_screen_1_old_   scene_item_screen_1_old_coll
     0013763D  _scene_item_screen_1_old_collisi   scene_item_screen_1_old_coll
     001377A5  ___func_scene_item_screen_1_old_   scene_item_screen_1_old_spri
     001377A5  _scene_item_screen_1_old_sprites   scene_item_screen_1_old_spri
     001377AB  ___func_scene_power_off__collisi   scene_power_off__collisions
     001377AB  _scene_power_off__collisions       scene_power_off__collisions
     00137913  ___func_scene_start_dark_bathroo   scene_start_dark_bathroom_co
     00137913  _scene_start_dark_bathroom_colli   scene_start_dark_bathroom_co
     00137A7B  _scene_start_dark_livingroom_ini   scene_start_dark_livingroom_
     00137BC8  ___func_scene_the_end_scene__col   scene_the_end_scene__collisi
     00137BC8  _scene_the_end_scene__collisions   scene_the_end_scene__collisi
     00137D30  ___func_scene_tile_screen_gbc_co   scene_tile_screen_gbc_collis
     00137D30  _scene_tile_screen_gbc_collision   scene_tile_screen_gbc_collis
     00137E98  ___func_scene_title_screen_colli   scene_title_screen_collision
     00137E98  _scene_title_screen_collisions     scene_title_screen_collision
ASxxxx Linker V03.00 + NoICE + sdld,  page 94.
Hexadecimal  [32-Bits]

Area                                    Addr        Size        Decimal Bytes (Attributes)
--------------------------------        ----        ----        ------- ----- ------------
_CODE_6                             00064000    00004000 =       16384. bytes (REL,CON)

      Value  Global                              Global Defined In Module
      -----  --------------------------------   ------------------------
     00064000  ___func_VM_MAIN                    vm
     00064000  _vm_call                           vm
     00064042  _vm_ret                            vm
     000640A1  _vm_call_far                       vm
     0006411E  _vm_ret_far                        vm
     0006418D  _vm_push                           vm
     000641B7  _vm_pop                            vm
     000641F2  _vm_loop                           vm
     0006427F  _vm_jump                           vm
     0006428B  _wait_frames                       vm
     00064302  _vm_invoke                         vm
     0006442E  _vm_join                           vm
     00064487  _vm_terminate                      vm
     000644B4  _vm_if                             vm
     000645F8  _vm_if_const                       vm
     0006470C  _vm_push_value                     vm
     0006475E  _vm_push_value_ind                 vm
     000647D3  _vm_push_reference                 vm
     0006482A  _vm_reserve                        vm
     00064857  _vm_set                            vm
     000648B8  _vm_set_const                      vm
     000648E4  _vm_get_tlocal                     vm
     00064971  _vm_test_terminate                 vm
     0006497C  _vm_idle                           vm
     00064988  _vm_get_uint8                      vm
     000649BB  _vm_get_int8                       vm
     000649EF  _vm_get_int16                      vm
     00064A31  _vm_set_uint8                      vm
     00064A5D  _vm_set_int8                       vm
     00064A89  _vm_set_int16                      vm
     00064AC8  _vm_set_const_int8                 vm
     00064AD1  _vm_set_const_int16                vm
     00064ADD  _vm_init_rng                       vm
     00064B09  _vm_rand                           vm
     00064B8E  _vm_lock                           vm
     00064B9D  _vm_unlock                         vm
     00064BB0  _vm_raise                          vm
     00064BF2  _vm_set_indirect                   vm
     00064C6D  _vm_get_indirect                   vm
     00064CE8  _vm_poll_loaded                    vm
     00064D17  _vm_memset                         vm
     00064D5C  _vm_memcpy                         vm
     00064DDC  _script_runner_init                vm
     00064E98  _script_execute                    vm
     00064FDD  _script_terminate                  vm
     00065043  _script_detach_hthread             vm
     00065080  _actor_item_1_interact             actor_item_1_interact
     00065616  ___func_bg_pictures_cg_wake2_gb_   bg_pictures_cg_wake2_gb_tile
     00065616  _bg_pictures_cg_wake2_gb_tileset   bg_pictures_cg_wake2_gb_tile
     00066408  ___func_bg_pictures_cg_wake2_gbc   bg_pictures_cg_wake2_gbc_til
ASxxxx Linker V03.00 + NoICE + sdld,  page 95.
Hexadecimal  [32-Bits]

Area                                    Addr        Size        Decimal Bytes (Attributes)
--------------------------------        ----        ----        ------- ----- ------------
_CODE_6                             00064000    00004000 =       16384. bytes (REL,CON)

      Value  Global                              Global Defined In Module
      -----  --------------------------------   ------------------------
     00066408  _bg_pictures_cg_wake2_gbc_tilese   bg_pictures_cg_wake2_gbc_til
     000671FA  ___func_bg_pictures_cg_wake4_gb_   bg_pictures_cg_wake4_gb_tile
     000671FA  _bg_pictures_cg_wake4_gb_tileset   bg_pictures_cg_wake4_gb_tile
     00067FCC  ___func_scene_b6_gbc_actors        scene_b6_gbc_actors
     00067FCC  _scene_b6_gbc_actors               scene_b6_gbc_actors

ASxxxx Linker V03.00 + NoICE + sdld,  page 96.
Hexadecimal  [32-Bits]

Area                                    Addr        Size        Decimal Bytes (Attributes)
--------------------------------        ----        ----        ------- ----- ------------
_CODE_17                            00114000    00004000 =       16384. bytes (REL,CON)

      Value  Global                              Global Defined In Module
      -----  --------------------------------   ------------------------
     00114000  _actor_13_interact                 actor_13_interact
     001141AF  _actor_15_interact                 actor_15_interact
     0011436A  _actor_19_interact                 actor_19_interact
     001144D4  _actor_23_interact                 actor_23_interact
     0011469E  ___func_bg_bathroomnew_tilemap     bg_bathroomnew_tilemap
     0011469E  _bg_bathroomnew_tilemap            bg_bathroomnew_tilemap
     00114806  ___func_bg_bathroomnew_tileset     bg_bathroomnew_tileset
     00114806  _bg_bathroomnew_tileset            bg_bathroomnew_tileset
     001149B8  ___func_bg_input_password_screen   bg_input_password_screen_v2_
     001149B8  _bg_input_password_screen_v2_til   bg_input_password_screen_v2_
     00114B5A  ___func_bg_new_folder_wip_baseme   bg_new_folder_wip_basement__
     00114B5A  _bg_new_folder_wip_basement__1_t   bg_new_folder_wip_basement__
     00114D88  ___func_bg_new_folder_wip_baseme   bg_new_folder_wip_basement__
     00114D88  _bg_new_folder_wip_basement__2_t   bg_new_folder_wip_basement__
     00114FB6  ___func_bg_new_folder_wip_baseme   bg_new_folder_wip_basement__
     00114FB6  _bg_new_folder_wip_basement__til   bg_new_folder_wip_basement__
     00115158  ___func_scene_basement_light_col   scene_basement_light_collisi
     00115158  _scene_basement_light_collisions   scene_basement_light_collisi
     00115386  ___func_scene_basement_no_light_   scene_basement_no_light_coll
     00115386  _scene_basement_no_light_collisi   scene_basement_no_light_coll
     001155B4  ___func_scene_dev_room_actors      scene_dev_room_actors
     001155B4  _scene_dev_room_actors             scene_dev_room_actors
     00115720  ___func_scene_gbc_start_dark_bat   scene_gbc_start_dark_bathro_
     00115720  _scene_gbc_start_dark_bathro_act   scene_gbc_start_dark_bathro_
     0011588C  ___func_scene_input_password_old   scene_input_password_old__ac
     0011588C  _scene_input_password_old__actor   scene_input_password_old__ac
     001159F8  _scene_power_off__init             scene_power_off__init
     00115A16  ___func_scene_start_dark_bedroom   scene_start_dark_bedroom_act
     00115A16  _scene_start_dark_bedroom_actors   scene_start_dark_bedroom_act
     00115B82  _scene_start_dark_bedroom_init     scene_start_dark_bedroom_ini
     00115DAD  _scene_tile_screen_gbc_init        scene_tile_screen_gbc_init
     00115F1A  _scene_title_screen_init           scene_title_screen_init
     001160C4  _script_input_7                    script_input_7
     00116280  ___func_sprite_characters_niko_n   sprite_characters_niko_niko_
     00116280  _sprite_characters_niko_niko_0_t   sprite_characters_niko_niko_
     00116422  ___func_sprite_characters_niko_n   sprite_characters_niko_niko_
     00116422  _sprite_characters_niko_niko_2_t   sprite_characters_niko_niko_
     001165A4  _trigger_15_interact               trigger_15_interact
     0011679A  _trigger_16_interact               trigger_16_interact
     00116990  _trigger_17_interact               trigger_17_interact
     00116B86  _trigger_18_interact               trigger_18_interact
     00116D7C  _trigger_19_interact               trigger_19_interact
     00116F72  _trigger_20_interact               trigger_20_interact
     00117168  _trigger_21_interact               trigger_21_interact
     0011735E  _trigger_22_interact               trigger_22_interact
     00117554  _trigger_23_interact               trigger_23_interact
     0011774A  _trigger_24_interact               trigger_24_interact
     00117940  _trigger_27_interact               trigger_27_interact
     00117AC6  _trigger_28_interact               trigger_28_interact
     00117C4C  _trigger_4_interact                trigger_4_interact
ASxxxx Linker V03.00 + NoICE + sdld,  page 97.
Hexadecimal  [32-Bits]

Area                                    Addr        Size        Decimal Bytes (Attributes)
--------------------------------        ----        ----        ------- ----- ------------
_CODE_17                            00114000    00004000 =       16384. bytes (REL,CON)

      Value  Global                              Global Defined In Module
      -----  --------------------------------   ------------------------
     00117E26  _trigger_5_interact                trigger_5_interact
ASxxxx Linker V03.00 + NoICE + sdld,  page 98.
Hexadecimal  [32-Bits]

Area                                    Addr        Size        Decimal Bytes (Attributes)
--------------------------------        ----        ----        ------- ----- ------------
_CODE_5                             00054000    00004000 =       16384. bytes (REL,CON)

      Value  Global                              Global Defined In Module
      -----  --------------------------------   ------------------------
     00054000  _actor_16_interact                 actor_16_interact
     000550E5  ___func_bg_louis_endscreen_tiles   bg_louis_endscreen_tileset
     000550E5  _bg_louis_endscreen_tileset        bg_louis_endscreen_tileset
     00055CE7  _script_input_17                   script_input_17
     00055D0C  ___func_sound_pc_messagebox_wav    sound_pc_messagebox_wav
     00055D0C  _sound_pc_messagebox_wav           sound_pc_messagebox_wav
     00056EC6  _platform_init                     platform
     0005707D  _platform_update                   platform

ASxxxx Linker V03.00 + NoICE + sdld,  page 99.
Hexadecimal  [32-Bits]

Area                                    Addr        Size        Decimal Bytes (Attributes)
--------------------------------        ----        ----        ------- ----- ------------
_CODE_12                            000C4000    00004000 =       16384. bytes (REL,CON)

      Value  Global                              Global Defined In Module
      -----  --------------------------------   ------------------------
     000C4000  _actor_28_interact                 actor_28_interact
     000C4036  ___func_bg_new_folder_wip_baseme   bg_new_folder_wip_basement__
     000C4036  _bg_new_folder_wip_basement__til   bg_new_folder_wip_basement__
     000C4806  ___func_bg_new_folder_wip_baseme   bg_new_folder_wip_basement__
     000C4806  _bg_new_folder_wip_basement__til   bg_new_folder_wip_basement__
     000C4FD6  ___func_bg_pictures_b3_gb_alt_ti   bg_pictures_b3_gb_alt_tilese
     000C4FD6  _bg_pictures_b3_gb_alt_tileset     bg_pictures_b3_gb_alt_tilese
     000C57E8  ___func_bg_pictures_b3_gbc_alt_t   bg_pictures_b3_gbc_alt_tiles
     000C57E8  _bg_pictures_b3_gbc_alt_tileset    bg_pictures_b3_gbc_alt_tiles
     000C5FFA  ___func_bg_pictures_b4_gb_alt_ti   bg_pictures_b4_gb_alt_tilese
     000C5FFA  _bg_pictures_b4_gb_alt_tileset     bg_pictures_b4_gb_alt_tilese
     000C67FC  ___func_bg_pictures_b4_gbc_alt_t   bg_pictures_b4_gbc_alt_tiles
     000C67FC  _bg_pictures_b4_gbc_alt_tileset    bg_pictures_b4_gbc_alt_tiles
     000C6FFE  ___func_bg_pictures_b7_gb_alt_ti   bg_pictures_b7_gb_alt_tilese
     000C6FFE  _bg_pictures_b7_gb_alt_tileset     bg_pictures_b7_gb_alt_tilese
     000C7830  ___func_scene_basement_stairs_co   scene_basement_stairs_collis
     000C7830  _scene_basement_stairs_collision   scene_basement_stairs_collis

ASxxxx Linker V03.00 + NoICE + sdld,  page 100.
Hexadecimal  [32-Bits]

Area                                    Addr        Size        Decimal Bytes (Attributes)
--------------------------------        ----        ----        ------- ----- ------------
_CODE_18                            00124000    00004000 =       16384. bytes (REL,CON)

      Value  Global                              Global Defined In Module
      -----  --------------------------------   ------------------------
     00124000  _actor_48_interact                 actor_48_interact
     001240B7  ___func_bg_gb_switch_jul162021_t   bg_gb_switch_jul162021_tilem
     001240B7  _bg_gb_switch_jul162021_tilemap_   bg_gb_switch_jul162021_tilem
     0012421F  ___func_bg_gb_switch_jul162021_t   bg_gb_switch_jul162021_tilem
     0012421F  _bg_gb_switch_jul162021_tilemap    bg_gb_switch_jul162021_tilem
     00124387  ___func_bg_input_password_screen   bg_input_password_screen_til
     00124387  _bg_input_password_screen_tilema   bg_input_password_screen_til
     001244EF  ___func_bg_input_password_screen   bg_input_password_screen_v2_
     001244EF  _bg_input_password_screen_v2_til   bg_input_password_screen_v2_
     00124657  ___func_bg_inv_sys_2_tilemap       bg_inv_sys_2_tilemap
     00124657  _bg_inv_sys_2_tilemap              bg_inv_sys_2_tilemap
     001247BF  ___func_bg_louis_endscreen_tilem   bg_louis_endscreen_tilemap
     001247BF  _bg_louis_endscreen_tilemap        bg_louis_endscreen_tilemap
     00124927  ___func_bg_normal_gb_optimized_t   bg_normal_gb_optimized_tilem
     00124927  _bg_normal_gb_optimized_tilemap    bg_normal_gb_optimized_tilem
     00124A8F  ___func_bg_normal_gbc_tilemap_at   bg_normal_gbc_tilemap_attr
     00124A8F  _bg_normal_gbc_tilemap_attr        bg_normal_gbc_tilemap_attr
     00124BF7  ___func_bg_normal_gbc_tilemap      bg_normal_gbc_tilemap
     00124BF7  _bg_normal_gbc_tilemap             bg_normal_gbc_tilemap
     00124D5F  ___func_bg_pictures_b3_gb_alt_ti   bg_pictures_b3_gb_alt_tilema
     00124D5F  _bg_pictures_b3_gb_alt_tilemap_a   bg_pictures_b3_gb_alt_tilema
     00124EC7  ___func_bg_pictures_b3_gb_alt_ti   bg_pictures_b3_gb_alt_tilema
     00124EC7  _bg_pictures_b3_gb_alt_tilemap     bg_pictures_b3_gb_alt_tilema
     0012502F  ___func_bg_pictures_b3_gbc_alt_t   bg_pictures_b3_gbc_alt_tilem
     0012502F  _bg_pictures_b3_gbc_alt_tilemap_   bg_pictures_b3_gbc_alt_tilem
     00125197  ___func_bg_pictures_b4_gb_alt_ti   bg_pictures_b4_gb_alt_tilema
     00125197  _bg_pictures_b4_gb_alt_tilemap_a   bg_pictures_b4_gb_alt_tilema
     001252FF  ___func_bg_pictures_b4_gb_alt_ti   bg_pictures_b4_gb_alt_tilema
     001252FF  _bg_pictures_b4_gb_alt_tilemap     bg_pictures_b4_gb_alt_tilema
     00125467  ___func_bg_pictures_b4_gbc_alt_t   bg_pictures_b4_gbc_alt_tilem
     00125467  _bg_pictures_b4_gbc_alt_tilemap_   bg_pictures_b4_gbc_alt_tilem
     001255CF  ___func_bg_pictures_b5_gb_alt_ti   bg_pictures_b5_gb_alt_tilema
     001255CF  _bg_pictures_b5_gb_alt_tilemap_a   bg_pictures_b5_gb_alt_tilema
     00125737  ___func_bg_pictures_b5_gb_alt_ti   bg_pictures_b5_gb_alt_tilema
     00125737  _bg_pictures_b5_gb_alt_tilemap     bg_pictures_b5_gb_alt_tilema
     0012589F  ___func_bg_pictures_b5_gbc_alt_t   bg_pictures_b5_gbc_alt_tilem
     0012589F  _bg_pictures_b5_gbc_alt_tilemap_   bg_pictures_b5_gbc_alt_tilem
     00125A07  ___func_bg_pictures_b6_gb_alt_ti   bg_pictures_b6_gb_alt_tilema
     00125A07  _bg_pictures_b6_gb_alt_tilemap_a   bg_pictures_b6_gb_alt_tilema
     00125B6F  ___func_bg_pictures_b6_gb_alt_ti   bg_pictures_b6_gb_alt_tilema
     00125B6F  _bg_pictures_b6_gb_alt_tilemap     bg_pictures_b6_gb_alt_tilema
     00125CD7  ___func_bg_pictures_b6_gbc_alt_t   bg_pictures_b6_gbc_alt_tilem
     00125CD7  _bg_pictures_b6_gbc_alt_tilemap_   bg_pictures_b6_gbc_alt_tilem
     00125E3F  ___func_bg_pictures_b7_gb_alt_ti   bg_pictures_b7_gb_alt_tilema
     00125E3F  _bg_pictures_b7_gb_alt_tilemap_a   bg_pictures_b7_gb_alt_tilema
     00125FA7  ___func_bg_pictures_b7_gb_alt_ti   bg_pictures_b7_gb_alt_tilema
     00125FA7  _bg_pictures_b7_gb_alt_tilemap     bg_pictures_b7_gb_alt_tilema
     0012610F  ___func_bg_pictures_b7_gbc_alt_t   bg_pictures_b7_gbc_alt_tilem
     0012610F  _bg_pictures_b7_gbc_alt_tilemap_   bg_pictures_b7_gbc_alt_tilem
     00126277  ___func_bg_pictures_b7_gbc_alt_t   bg_pictures_b7_gbc_alt_tilem
ASxxxx Linker V03.00 + NoICE + sdld,  page 101.
Hexadecimal  [32-Bits]

Area                                    Addr        Size        Decimal Bytes (Attributes)
--------------------------------        ----        ----        ------- ----- ------------
_CODE_18                            00124000    00004000 =       16384. bytes (REL,CON)

      Value  Global                              Global Defined In Module
      -----  --------------------------------   ------------------------
     00126277  _bg_pictures_b7_gbc_alt_tilemap    bg_pictures_b7_gbc_alt_tilem
     001263DF  ___func_bg_pictures_b8_gb_alt_ti   bg_pictures_b8_gb_alt_tilema
     001263DF  _bg_pictures_b8_gb_alt_tilemap_a   bg_pictures_b8_gb_alt_tilema
     00126547  ___func_bg_pictures_b8_gb_alt_ti   bg_pictures_b8_gb_alt_tilema
     00126547  _bg_pictures_b8_gb_alt_tilemap     bg_pictures_b8_gb_alt_tilema
     001266AF  ___func_bg_pictures_b9_gb_alt_ti   bg_pictures_b9_gb_alt_tilema
     001266AF  _bg_pictures_b9_gb_alt_tilemap_a   bg_pictures_b9_gb_alt_tilema
     00126817  ___func_bg_pictures_b9_gb_alt_ti   bg_pictures_b9_gb_alt_tilema
     00126817  _bg_pictures_b9_gb_alt_tilemap     bg_pictures_b9_gb_alt_tilema
     0012697F  ___func_bg_pictures_cg_door1_gb_   bg_pictures_cg_door1_gb_tile
     0012697F  _bg_pictures_cg_door1_gb_tilemap   bg_pictures_cg_door1_gb_tile
     00126AE7  ___func_bg_pictures_cg_door2_gb_   bg_pictures_cg_door2_gb_tile
     00126AE7  _bg_pictures_cg_door2_gb_tilemap   bg_pictures_cg_door2_gb_tile
     00126C4F  ___func_bg_pictures_cg_wake1_gb_   bg_pictures_cg_wake1_gb_tile
     00126C4F  _bg_pictures_cg_wake1_gb_tilemap   bg_pictures_cg_wake1_gb_tile
     00126DB7  ___func_bg_pictures_cg_wake1_gb_   bg_pictures_cg_wake1_gb_tile
     00126DB7  _bg_pictures_cg_wake1_gb_tilemap   bg_pictures_cg_wake1_gb_tile
     00126F1F  ___func_bg_pictures_cg_wake1_gbc   bg_pictures_cg_wake1_gbc_til
     00126F1F  _bg_pictures_cg_wake1_gbc_tilema   bg_pictures_cg_wake1_gbc_til
     00127087  ___func_bg_pictures_cg_wake2_gb_   bg_pictures_cg_wake2_gb_tile
     00127087  _bg_pictures_cg_wake2_gb_tilemap   bg_pictures_cg_wake2_gb_tile
     001271EF  ___func_bg_pictures_cg_wake2_gb_   bg_pictures_cg_wake2_gb_tile
     001271EF  _bg_pictures_cg_wake2_gb_tilemap   bg_pictures_cg_wake2_gb_tile
     00127357  ___func_bg_pictures_cg_wake2_gbc   bg_pictures_cg_wake2_gbc_til
     00127357  _bg_pictures_cg_wake2_gbc_tilema   bg_pictures_cg_wake2_gbc_til
     001274BF  ___func_bg_pictures_cg_wake2_gbc   bg_pictures_cg_wake2_gbc_til
     001274BF  _bg_pictures_cg_wake2_gbc_tilema   bg_pictures_cg_wake2_gbc_til
     00127627  ___func_bg_pictures_cg_wake3_gb_   bg_pictures_cg_wake3_gb_tile
     00127627  _bg_pictures_cg_wake3_gb_tilemap   bg_pictures_cg_wake3_gb_tile
     0012778F  ___func_bg_pictures_cg_wake3_gb_   bg_pictures_cg_wake3_gb_tile
     0012778F  _bg_pictures_cg_wake3_gb_tilemap   bg_pictures_cg_wake3_gb_tile
     001278F7  ___func_bg_pictures_cg_wake3_gbc   bg_pictures_cg_wake3_gbc_til
     001278F7  _bg_pictures_cg_wake3_gbc_tilema   bg_pictures_cg_wake3_gbc_til
     00127A5F  ___func_bg_pictures_cg_wake3_gbc   bg_pictures_cg_wake3_gbc_til
     00127A5F  _bg_pictures_cg_wake3_gbc_tilema   bg_pictures_cg_wake3_gbc_til
     00127BC7  ___func_bg_pictures_cg_wake4_gb_   bg_pictures_cg_wake4_gb_tile
     00127BC7  _bg_pictures_cg_wake4_gb_tilemap   bg_pictures_cg_wake4_gb_tile
     00127D2F  ___func_bg_pictures_cg_wake4_gb_   bg_pictures_cg_wake4_gb_tile
     00127D2F  _bg_pictures_cg_wake4_gb_tilemap   bg_pictures_cg_wake4_gb_tile
     00127E97  ___func_bg_pictures_cg_wake4_gbc   bg_pictures_cg_wake4_gbc_til
     00127E97  _bg_pictures_cg_wake4_gbc_tilema   bg_pictures_cg_wake4_gbc_til
     00127FFF  _script_input_16                   script_input_16

ASxxxx Linker V03.00 + NoICE + sdld,  page 102.
Hexadecimal  [32-Bits]

Area                                    Addr        Size        Decimal Bytes (Attributes)
--------------------------------        ----        ----        ------- ----- ------------
_CODE_9                             00094000    00004000 =       16384. bytes (REL,CON)

      Value  Global                              Global Defined In Module
      -----  --------------------------------   ------------------------
     00094000  _actor_comments_1_interact         actor_comments_1_interact
     00094002  ___func_bg_normal_gb_optimized_t   bg_normal_gb_optimized_tiles
     00094002  _bg_normal_gb_optimized_tileset    bg_normal_gb_optimized_tiles
     00094BC4  ___func_bg_pictures_cg_desktop_n   bg_pictures_cg_desktop_no_e_
     00094BC4  _bg_pictures_cg_desktop_no_e_12_   bg_pictures_cg_desktop_no_e_
     00095766  ___func_bg_pictures_cg_desktop_n   bg_pictures_cg_desktop_no_e_
     00095766  _bg_pictures_cg_desktop_no_e_13_   bg_pictures_cg_desktop_no_e_
     00096318  ___func_bg_pictures_cg_wake1_gbc   bg_pictures_cg_wake1_gbc_til
     00096318  _bg_pictures_cg_wake1_gbc_tilese   bg_pictures_cg_wake1_gbc_til
     00096FEA  ___func_bg_startinghome_startgb_   bg_startinghome_startgb_tile
     00096FEA  _bg_startinghome_startgb_tilemap   bg_startinghome_startgb_tile
     0009749A  _scene_input_password_old__init    scene_input_password_old__in
     000974E2  ___func_sound_branch_snap_wav      sound_branch_snap_wav
     000974E2  _sound_branch_snap_wav             sound_branch_snap_wav

ASxxxx Linker V03.00 + NoICE + sdld,  page 103.
Hexadecimal  [32-Bits]

Area                                    Addr        Size        Decimal Bytes (Attributes)
--------------------------------        ----        ----        ------- ----- ------------
_CODE_3                             00034000    00004000 =       16384. bytes (REL,CON)

      Value  Global                              Global Defined In Module
      -----  --------------------------------   ------------------------
     00034000  _actor_interact_1_update           actor_interact_1_update
     00035444  ___func_bg_barrens_docksgb_tilem   bg_barrens_docksgb_tilemap_a
     00035444  _bg_barrens_docksgb_tilemap_attr   bg_barrens_docksgb_tilemap_a
     000367F4  ___func_bg_pictures_cg_door1_gb_   bg_pictures_cg_door1_gb_tile
     000367F4  _bg_pictures_cg_door1_gb_tileset   bg_pictures_cg_door1_gb_tile
     00036B36  _SGB_border_chr                    border
     00036B36  ___func_SGB_border_chr             border
     00036B36  ___func_SGB_border_map             border
     00036B36  ___func_SGB_border_pal             border
     00037876  _SGB_border_map                    border
     00037F76  _SGB_border_pal                    border
     00037FF6  ___func_scene_input_password_old   scene_input_password_old__sp
     00037FF6  _scene_input_password_old__sprit   scene_input_password_old__sp
     00037FFF  _script_input_1                    script_input_1

ASxxxx Linker V03.00 + NoICE + sdld,  page 104.
Hexadecimal  [32-Bits]

Area                                    Addr        Size        Decimal Bytes (Attributes)
--------------------------------        ----        ----        ------- ----- ------------
_CODE_7                             00074000    00004000 =       16384. bytes (REL,CON)

      Value  Global                              Global Defined In Module
      -----  --------------------------------   ------------------------
     00074000  ___func_bg_barrens_docksgb_tiles   bg_barrens_docksgb_tileset
     00074000  _bg_barrens_docksgb_tileset        bg_barrens_docksgb_tileset
     00074952  ___func_bg_pictures_cg_wake4_gbc   bg_pictures_cg_wake4_gbc_til
     00074952  _bg_pictures_cg_wake4_gbc_tilese   bg_pictures_cg_wake4_gbc_til
     000756E4  ___func_bg_pictures_cg_wake5_gb_   bg_pictures_cg_wake5_gb_tile
     000756E4  _bg_pictures_cg_wake5_gb_tileset   bg_pictures_cg_wake5_gb_tile
     000764A6  ___func_bg_pictures_cg_wake5_gbc   bg_pictures_cg_wake5_gbc_til
     000764A6  _bg_pictures_cg_wake5_gbc_tilese   bg_pictures_cg_wake5_gbc_til
     00077228  ___func_font_gbs_mono              font_gbs_mono
     00077FD8  _font_gbs_mono                     font_gbs_mono
     00077FE0  ___func_scene_input_password_2_0   scene_input_password_2_0_tri
     00077FE0  _scene_input_password_2_0_trigge   scene_input_password_2_0_tri
ASxxxx Linker V03.00 + NoICE + sdld,  page 105.
Hexadecimal  [32-Bits]

Area                                    Addr        Size        Decimal Bytes (Attributes)
--------------------------------        ----        ----        ------- ----- ------------
_CODE_2                             00024000    00004000 =       16384. bytes (REL,CON)

      Value  Global                              Global Defined In Module
      -----  --------------------------------   ------------------------
     00024000  ___func_bg_menus_newinvmenu_tile   bg_menus_newinvmenu_tilemap_
     00024000  _bg_menus_newinvmenu_tilemap_att   bg_menus_newinvmenu_tilemap_
     00024604  _script_menu_start_button_be       script_menu_start_button_be
     0002460E  ___func_sound_pc_logon_wav         sound_pc_logon_wav
     0002460E  _sound_pc_logon_wav                sound_pc_logon_wav

ASxxxx Linker V03.00 + NoICE + sdld,  page 106.
Hexadecimal  [32-Bits]

Area                                    Addr        Size        Decimal Bytes (Attributes)
--------------------------------        ----        ----        ------- ----- ------------
_CODE_10                            000A4000    00004000 =       16384. bytes (REL,CON)

      Value  Global                              Global Defined In Module
      -----  --------------------------------   ------------------------
     000A4000  ___func_bg_pictures_cg_desktop_n   bg_pictures_cg_desktop_no_e_
     000A4000  _bg_pictures_cg_desktop_no_e_12_   bg_pictures_cg_desktop_no_e_
     000A49D8  ___func_bg_pictures_cg_desktop_n   bg_pictures_cg_desktop_no_e_
     000A49D8  _bg_pictures_cg_desktop_no_e_12_   bg_pictures_cg_desktop_no_e_
     000A53B0  ___func_bg_pictures_cg_desktop_n   bg_pictures_cg_desktop_no_e_
     000A53B0  _bg_pictures_cg_desktop_no_e_13_   bg_pictures_cg_desktop_no_e_
     000A5D88  ___func_bg_pictures_cg_desktop_n   bg_pictures_cg_desktop_no_e_
     000A5D88  _bg_pictures_cg_desktop_no_e_13_   bg_pictures_cg_desktop_no_e_
     000A6760  ___func_bg_startinghome_startgb_   bg_startinghome_startgb_tile
     000A6760  _bg_startinghome_startgb_tilemap   bg_startinghome_startgb_tile
     000A6C10  ___func_scene_computer_cutscene_   scene_computer_cutscene_2_co
     000A6C10  _scene_computer_cutscene_2_colli   scene_computer_cutscene_2_co
     000A75E8  ___func_scene_computer_cutscene_   scene_computer_cutscene_coll
     000A75E8  _scene_computer_cutscene_collisi   scene_computer_cutscene_coll
     000A7FC0  ___func_scene_item_screen_2_new_   scene_item_screen_2_new_trig
     000A7FC0  _scene_item_screen_2_new_trigger   scene_item_screen_2_new_trig

ASxxxx Linker V03.00 + NoICE + sdld,  page 107.
Hexadecimal  [32-Bits]

Area                                    Addr        Size        Decimal Bytes (Attributes)
--------------------------------        ----        ----        ------- ----- ------------
_HEADER_LCD0                        00000000    00000003 =           3. bytes (ABS,CON)

      Value  Global                              Global Defined In Module
      -----  --------------------------------   ------------------------
ASxxxx Linker V03.00 + NoICE + sdld,  page 108.

Files Linked                              [ module(s) ]

C:\tmp/_gbstools/gbdk/lib/small/asxxxx/gb/crt0.o
                                          [ Runtime ]
C:/tmp/_gbsbuild/obj/___sdcc_bcall_ehl.rel
                                          [  ]
C:/tmp/_gbsbuild/obj/absolute.rel         [ absolute ]
C:/tmp/_gbsbuild/obj/actor.rel            [ actor ]
C:/tmp/_gbsbuild/obj/bankdata.rel         [ bankdata ]
C:/tmp/_gbsbuild/obj/bootstrap.rel        [  ]
C:/tmp/_gbsbuild/obj/camera.rel           [ camera ]
C:/tmp/_gbsbuild/obj/core.rel             [ core ]
C:/tmp/_gbsbuild/obj/crash_handler.rel    [  ]
C:/tmp/_gbsbuild/obj/data_manager.rel     [ data_manager ]
C:/tmp/_gbsbuild/obj/events.rel           [ events ]
C:/tmp/_gbsbuild/obj/fade_manager.rel     [ fade_manager ]
C:/tmp/_gbsbuild/obj/flasher_s.rel        [  ]
C:/tmp/_gbsbuild/obj/flasher.rel          [ flasher ]
C:/tmp/_gbsbuild/obj/game_time.rel        [ game_time ]
C:/tmp/_gbsbuild/obj/gbprinter.rel        [ gbprinter ]
C:/tmp/_gbsbuild/obj/input.rel            [ input ]
C:/tmp/_gbsbuild/obj/interrupt_sio.rel    [  ]
C:/tmp/_gbsbuild/obj/interrupt_timer.rel  [  ]
C:/tmp/_gbsbuild/obj/interrupts.rel       [ interrupts ]
C:/tmp/_gbsbuild/obj/load_save.rel        [ load_save ]
C:/tmp/_gbsbuild/obj/math.rel             [ math ]
C:/tmp/_gbsbuild/obj/music_manager.rel    [ music_manager ]
C:/tmp/_gbsbuild/obj/palette.rel          [ palette ]
C:/tmp/_gbsbuild/obj/parallax.rel         [ parallax ]
C:/tmp/_gbsbuild/obj/projectiles.rel      [ projectiles ]
C:/tmp/_gbsbuild/obj/scroll_a.rel         [  ]
C:/tmp/_gbsbuild/obj/scroll.rel           [ scroll ]
C:/tmp/_gbsbuild/obj/set_tile_submap.rel  [  ]
C:/tmp/_gbsbuild/obj/sfx_player.rel       [ sfx_player ]
C:/tmp/_gbsbuild/obj/sgb_border.rel       [ sgb_border ]
C:/tmp/_gbsbuild/obj/sio.rel              [ sio ]
C:/tmp/_gbsbuild/obj/states_caller.rel    [  ]
C:/tmp/_gbsbuild/obj/system.rel           [ system ]
C:/tmp/_gbsbuild/obj/trigger.rel          [ trigger ]
C:/tmp/_gbsbuild/obj/ui_a.rel             [  ]
C:/tmp/_gbsbuild/obj/ui.rel               [ ui ]
C:/tmp/_gbsbuild/obj/vm_actor.rel         [ vm_actor ]
C:/tmp/_gbsbuild/obj/vm_camera.rel        [ vm_camera ]
C:/tmp/_gbsbuild/obj/vm_gameboy.rel       [ vm_gameboy ]
C:/tmp/_gbsbuild/obj/vm_gbprinter.rel     [ vm_gbprinter ]
C:/tmp/_gbsbuild/obj/vm_instructions.rel  [ vm_instructions ]
C:/tmp/_gbsbuild/obj/vm_load_save.rel     [ vm_load_save ]
C:/tmp/_gbsbuild/obj/vm_math.rel          [ vm_math ]
C:/tmp/_gbsbuild/obj/vm_music.rel         [ vm_music ]
C:/tmp/_gbsbuild/obj/vm_palette.rel       [ vm_palette ]
C:/tmp/_gbsbuild/obj/vm_projectiles.rel   [ vm_projectiles ]
C:/tmp/_gbsbuild/obj/vm_rtc.rel           [ vm_rtc ]
C:/tmp/_gbsbuild/obj/vm_scene.rel         [ vm_scene ]
C:/tmp/_gbsbuild/obj/vm_sgb.rel           [ vm_sgb ]
C:/tmp/_gbsbuild/obj/vm_sio.rel           [ vm_sio ]
C:/tmp/_gbsbuild/obj/vm_ui_a.rel          [ vm_ui_a ]
C:/tmp/_gbsbuild/obj/vm_ui.rel            [ vm_ui ]
C:/tmp/_gbsbuild/obj/vm.rel               [ vm ]
C:/tmp/_gbsbuild/obj/actor_0_update.rel   [ actor_0_update ]
C:/tmp/_gbsbuild/obj/actor_1_interact.rel
                                          [ actor_1_interact ]
C:/tmp/_gbsbuild/obj/actor_1_update.rel   [ actor_1_update ]
C:/tmp/_gbsbuild/obj/actor_10_interact.rel
                                          [ actor_10_interact ]
C:/tmp/_gbsbuild/obj/actor_11_update.rel  [ actor_11_update ]
C:/tmp/_gbsbuild/obj/actor_12_interact.rel
                                          [ actor_12_interact ]
C:/tmp/_gbsbuild/obj/actor_12_update.rel  [ actor_12_update ]
C:/tmp/_gbsbuild/obj/actor_13_interact.rel
                                          [ actor_13_interact ]
C:/tmp/_gbsbuild/obj/actor_14_interact.rel
                                          [ actor_14_interact ]
C:/tmp/_gbsbuild/obj/actor_15_interact.rel
                                          [ actor_15_interact ]
C:/tmp/_gbsbuild/obj/actor_16_interact.rel
                                          [ actor_16_interact ]
C:/tmp/_gbsbuild/obj/actor_17_interact.rel
                                          [ actor_17_interact ]
C:/tmp/_gbsbuild/obj/actor_18_interact.rel
                                          [ actor_18_interact ]
C:/tmp/_gbsbuild/obj/actor_19_interact.rel
                                          [ actor_19_interact ]
C:/tmp/_gbsbuild/obj/actor_2_interact.rel
                                          [ actor_2_interact ]
C:/tmp/_gbsbuild/obj/actor_20_interact.rel
                                          [ actor_20_interact ]
C:/tmp/_gbsbuild/obj/actor_21_interact.rel
                                          [ actor_21_interact ]
C:/tmp/_gbsbuild/obj/actor_22_interact.rel
                                          [ actor_22_interact ]
C:/tmp/_gbsbuild/obj/actor_23_interact.rel
                                          [ actor_23_interact ]
C:/tmp/_gbsbuild/obj/actor_24_interact.rel
                                          [ actor_24_interact ]
C:/tmp/_gbsbuild/obj/actor_25_interact.rel
                                          [ actor_25_interact ]
C:/tmp/_gbsbuild/obj/actor_26_interact.rel
                                          [ actor_26_interact ]
C:/tmp/_gbsbuild/obj/actor_27_interact.rel
                                          [ actor_27_interact ]
C:/tmp/_gbsbuild/obj/actor_28_interact.rel
                                          [ actor_28_interact ]
C:/tmp/_gbsbuild/obj/actor_29_update.rel  [ actor_29_update ]
C:/tmp/_gbsbuild/obj/actor_3_interact.rel
                                          [ actor_3_interact ]
C:/tmp/_gbsbuild/obj/actor_30_interact.rel
                                          [ actor_30_interact ]
C:/tmp/_gbsbuild/obj/actor_32_interact.rel
                                          [ actor_32_interact ]
C:/tmp/_gbsbuild/obj/actor_33_interact.rel
                                          [ actor_33_interact ]
C:/tmp/_gbsbuild/obj/actor_34_interact.rel
                                          [ actor_34_interact ]
C:/tmp/_gbsbuild/obj/actor_35_interact.rel
                                          [ actor_35_interact ]
C:/tmp/_gbsbuild/obj/actor_36_interact.rel
                                          [ actor_36_interact ]
C:/tmp/_gbsbuild/obj/actor_37_interact.rel
                                          [ actor_37_interact ]
C:/tmp/_gbsbuild/obj/actor_39_interact.rel
                                          [ actor_39_interact ]
C:/tmp/_gbsbuild/obj/actor_4_interact.rel
                                          [ actor_4_interact ]
C:/tmp/_gbsbuild/obj/actor_4_update.rel   [ actor_4_update ]
C:/tmp/_gbsbuild/obj/actor_40_update.rel  [ actor_40_update ]
C:/tmp/_gbsbuild/obj/actor_42_interact.rel
                                          [ actor_42_interact ]
C:/tmp/_gbsbuild/obj/actor_43_interact.rel
                                          [ actor_43_interact ]
C:/tmp/_gbsbuild/obj/actor_44_interact.rel
                                          [ actor_44_interact ]
C:/tmp/_gbsbuild/obj/actor_46_interact.rel
                                          [ actor_46_interact ]
C:/tmp/_gbsbuild/obj/actor_47_interact.rel
                                          [ actor_47_interact ]
C:/tmp/_gbsbuild/obj/actor_48_interact.rel
                                          [ actor_48_interact ]
C:/tmp/_gbsbuild/obj/actor_49_interact.rel
                                          [ actor_49_interact ]
C:/tmp/_gbsbuild/obj/actor_5_interact.rel
                                          [ actor_5_interact ]
C:/tmp/_gbsbuild/obj/actor_6_update.rel   [ actor_6_update ]
C:/tmp/_gbsbuild/obj/actor_7_interact.rel
                                          [ actor_7_interact ]
C:/tmp/_gbsbuild/obj/actor_8_interact.rel
                                          [ actor_8_interact ]
C:/tmp/_gbsbuild/obj/actor_9_interact.rel
                                          [ actor_9_interact ]
C:/tmp/_gbsbuild/obj/actor_blue_interact.rel
                                          [ actor_blue_interact ]
C:/tmp/_gbsbuild/obj/actor_blue_number_screen_interact.rel
                                          [ actor_blue_number_screen_interac ]
C:/tmp/_gbsbuild/obj/actor_comments_0_interact.rel
                                          [ actor_comments_0_interact ]
C:/tmp/_gbsbuild/obj/actor_comments_0_update.rel
                                          [ actor_comments_0_update ]
C:/tmp/_gbsbuild/obj/actor_comments_1_interact.rel
                                          [ actor_comments_1_interact ]
C:/tmp/_gbsbuild/obj/actor_comments_interact.rel
                                          [ actor_comments_interact ]
C:/tmp/_gbsbuild/obj/actor_comments_update.rel
                                          [ actor_comments_update ]
C:/tmp/_gbsbuild/obj/actor_constantly_checks_ite_update.rel
                                          [ actor_constantly_checks_ite_upda ]
C:/tmp/_gbsbuild/obj/actor_current_interacted_sp_update.rel
                                          [ actor_current_interacted_sp_upda ]
C:/tmp/_gbsbuild/obj/actor_cursor_update.rel
                                          [ actor_cursor_update ]
C:/tmp/_gbsbuild/obj/actor_green_interact.rel
                                          [ actor_green_interact ]
C:/tmp/_gbsbuild/obj/actor_green_number_screen_interact.rel
                                          [ actor_green_number_screen_intera ]
C:/tmp/_gbsbuild/obj/actor_interact_1_update.rel
                                          [ actor_interact_1_update ]
C:/tmp/_gbsbuild/obj/actor_interaction_1_sprite_update.rel
                                          [ actor_interaction_1_sprite_updat ]
C:/tmp/_gbsbuild/obj/actor_interaction_sprite_0_update.rel
                                          [ actor_interaction_sprite_0_updat ]
C:/tmp/_gbsbuild/obj/actor_interaction_sprite_1_update.rel
                                          [ actor_interaction_sprite_1_updat ]
C:/tmp/_gbsbuild/obj/actor_interaction_sprite_3_update.rel
                                          [ actor_interaction_sprite_3_updat ]
C:/tmp/_gbsbuild/obj/actor_item_1_interact.rel
                                          [ actor_item_1_interact ]
C:/tmp/_gbsbuild/obj/actor_item_2_interact.rel
                                          [ actor_item_2_interact ]
C:/tmp/_gbsbuild/obj/actor_item_3_interact.rel
                                          [ actor_item_3_interact ]
C:/tmp/_gbsbuild/obj/actor_keyhole_interact.rel
                                          [ actor_keyhole_interact ]
C:/tmp/_gbsbuild/obj/actor_niko_bed_2_interact.rel
                                          [ actor_niko_bed_2_interact ]
C:/tmp/_gbsbuild/obj/actor_red_interact.rel
                                          [ actor_red_interact ]
C:/tmp/_gbsbuild/obj/actor_red_number_screen_interact.rel
                                          [ actor_red_number_screen_interact ]
C:/tmp/_gbsbuild/obj/actor_spark_interact.rel
                                          [ actor_spark_interact ]
C:/tmp/_gbsbuild/obj/actor_window_interact_interact.rel
                                          [ actor_window_interact_interact ]
C:/tmp/_gbsbuild/obj/actor_yellow_interact.rel
                                          [ actor_yellow_interact ]
C:/tmp/_gbsbuild/obj/actor_yellow_number_screen_interact.rel
                                          [ actor_yellow_number_screen_inter ]
C:/tmp/_gbsbuild/obj/avatar_font_0.rel    [ avatar_font_0 ]
C:/tmp/_gbsbuild/obj/bg_barrens_docksgb_tilemap_attr.rel
                                          [ bg_barrens_docksgb_tilemap_attr ]
C:/tmp/_gbsbuild/obj/bg_barrens_docksgb_tilemap.rel
                                          [ bg_barrens_docksgb_tilemap ]
C:/tmp/_gbsbuild/obj/bg_barrens_docksgb_tileset.rel
                                          [ bg_barrens_docksgb_tileset ]
C:/tmp/_gbsbuild/obj/bg_barrens_docksgb.rel
                                          [ bg_barrens_docksgb ]
C:/tmp/_gbsbuild/obj/bg_bathroomnew_tilemap.rel
                                          [ bg_bathroomnew_tilemap ]
C:/tmp/_gbsbuild/obj/bg_bathroomnew_tileset.rel
                                          [ bg_bathroomnew_tileset ]
C:/tmp/_gbsbuild/obj/bg_bathroomnew.rel   [ bg_bathroomnew ]
C:/tmp/_gbsbuild/obj/bg_gb_switch_jul162021_tilemap_attr.rel
                                          [ bg_gb_switch_jul162021_tilemap_a ]
C:/tmp/_gbsbuild/obj/bg_gb_switch_jul162021_tilemap.rel
                                          [ bg_gb_switch_jul162021_tilemap ]
C:/tmp/_gbsbuild/obj/bg_gb_switch_jul162021_tileset.rel
                                          [ bg_gb_switch_jul162021_tileset ]
C:/tmp/_gbsbuild/obj/bg_gb_switch_jul162021.rel
                                          [ bg_gb_switch_jul162021 ]
C:/tmp/_gbsbuild/obj/bg_input_password_screen_tilemap.rel
                                          [ bg_input_password_screen_tilemap ]
C:/tmp/_gbsbuild/obj/bg_input_password_screen_tileset.rel
                                          [ bg_input_password_screen_tileset ]
C:/tmp/_gbsbuild/obj/bg_input_password_screen_v2_tilemap.rel
                                          [ bg_input_password_screen_v2_tile ]
C:/tmp/_gbsbuild/obj/bg_input_password_screen_v2_tileset.rel
                                          [ bg_input_password_screen_v2_tile ]
C:/tmp/_gbsbuild/obj/bg_input_password_screen_v2.rel
                                          [ bg_input_password_screen_v2 ]
C:/tmp/_gbsbuild/obj/bg_input_password_screen.rel
                                          [ bg_input_password_screen ]
C:/tmp/_gbsbuild/obj/bg_inv_sys_2_tilemap.rel
                                          [ bg_inv_sys_2_tilemap ]
C:/tmp/_gbsbuild/obj/bg_inv_sys_2_tileset.rel
                                          [ bg_inv_sys_2_tileset ]
C:/tmp/_gbsbuild/obj/bg_inv_sys_2.rel     [ bg_inv_sys_2 ]
C:/tmp/_gbsbuild/obj/bg_louis_endscreen_tilemap.rel
                                          [ bg_louis_endscreen_tilemap ]
C:/tmp/_gbsbuild/obj/bg_louis_endscreen_tileset.rel
                                          [ bg_louis_endscreen_tileset ]
C:/tmp/_gbsbuild/obj/bg_louis_endscreen.rel
                                          [ bg_louis_endscreen ]
C:/tmp/_gbsbuild/obj/bg_menus_newinvmenu_tilemap_attr.rel
                                          [ bg_menus_newinvmenu_tilemap_attr ]
C:/tmp/_gbsbuild/obj/bg_menus_newinvmenu_tilemap.rel
                                          [ bg_menus_newinvmenu_tilemap ]
C:/tmp/_gbsbuild/obj/bg_menus_newinvmenu.rel
                                          [ bg_menus_newinvmenu ]
C:/tmp/_gbsbuild/obj/bg_new_folder_wip_basement__1_tilemap_attr.rel
                                          [ bg_new_folder_wip_basement__1_ti ]
C:/tmp/_gbsbuild/obj/bg_new_folder_wip_basement__1_tilemap.rel
                                          [ bg_new_folder_wip_basement__1_ti ]
C:/tmp/_gbsbuild/obj/bg_new_folder_wip_basement__1_tileset.rel
                                          [ bg_new_folder_wip_basement__1_ti ]
C:/tmp/_gbsbuild/obj/bg_new_folder_wip_basement__1.rel
                                          [ bg_new_folder_wip_basement__1 ]
C:/tmp/_gbsbuild/obj/bg_new_folder_wip_basement__2_tilemap.rel
                                          [ bg_new_folder_wip_basement__2_ti ]
C:/tmp/_gbsbuild/obj/bg_new_folder_wip_basement__2_tileset.rel
                                          [ bg_new_folder_wip_basement__2_ti ]
C:/tmp/_gbsbuild/obj/bg_new_folder_wip_basement__2.rel
                                          [ bg_new_folder_wip_basement__2 ]
C:/tmp/_gbsbuild/obj/bg_new_folder_wip_basement__tilemap_attr.rel
                                          [ bg_new_folder_wip_basement__tile ]
C:/tmp/_gbsbuild/obj/bg_new_folder_wip_basement__tilemap.rel
                                          [ bg_new_folder_wip_basement__tile ]
C:/tmp/_gbsbuild/obj/bg_new_folder_wip_basement__tileset.rel
                                          [ bg_new_folder_wip_basement__tile ]
C:/tmp/_gbsbuild/obj/bg_new_folder_wip_basement_.rel
                                          [ bg_new_folder_wip_basement_ ]
C:/tmp/_gbsbuild/obj/bg_normal_gb_optimized_tilemap.rel
                                          [ bg_normal_gb_optimized_tilemap ]
C:/tmp/_gbsbuild/obj/bg_normal_gb_optimized_tileset.rel
                                          [ bg_normal_gb_optimized_tileset ]
C:/tmp/_gbsbuild/obj/bg_normal_gb_optimized.rel
                                          [ bg_normal_gb_optimized ]
C:/tmp/_gbsbuild/obj/bg_normal_gbc_tilemap_attr.rel
                                          [ bg_normal_gbc_tilemap_attr ]
C:/tmp/_gbsbuild/obj/bg_normal_gbc_tilemap.rel
                                          [ bg_normal_gbc_tilemap ]
C:/tmp/_gbsbuild/obj/bg_normal_gbc_tileset.rel
                                          [ bg_normal_gbc_tileset ]
C:/tmp/_gbsbuild/obj/bg_normal_gbc.rel    [ bg_normal_gbc ]
C:/tmp/_gbsbuild/obj/bg_pictures_b0_2_gbc_tilemap_attr.rel
                                          [ bg_pictures_b0_2_gbc_tilemap_att ]
C:/tmp/_gbsbuild/obj/bg_pictures_b0_2_gbc_tilemap.rel
                                          [ bg_pictures_b0_2_gbc_tilemap ]
C:/tmp/_gbsbuild/obj/bg_pictures_b0_2_gbc_tileset.rel
                                          [ bg_pictures_b0_2_gbc_tileset ]
C:/tmp/_gbsbuild/obj/bg_pictures_b0_2_gbc.rel
                                          [ bg_pictures_b0_2_gbc ]
C:/tmp/_gbsbuild/obj/bg_pictures_b0_2_tilemap_attr.rel
                                          [ bg_pictures_b0_2_tilemap_attr ]
C:/tmp/_gbsbuild/obj/bg_pictures_b0_2_tilemap.rel
                                          [ bg_pictures_b0_2_tilemap ]
C:/tmp/_gbsbuild/obj/bg_pictures_b0_2_tileset.rel
                                          [ bg_pictures_b0_2_tileset ]
C:/tmp/_gbsbuild/obj/bg_pictures_b0_2.rel
                                          [ bg_pictures_b0_2 ]
C:/tmp/_gbsbuild/obj/bg_pictures_b3_gb_alt_tilemap_attr.rel
                                          [ bg_pictures_b3_gb_alt_tilemap_at ]
C:/tmp/_gbsbuild/obj/bg_pictures_b3_gb_alt_tilemap.rel
                                          [ bg_pictures_b3_gb_alt_tilemap ]
C:/tmp/_gbsbuild/obj/bg_pictures_b3_gb_alt_tileset.rel
                                          [ bg_pictures_b3_gb_alt_tileset ]
C:/tmp/_gbsbuild/obj/bg_pictures_b3_gb_alt.rel
                                          [ bg_pictures_b3_gb_alt ]
C:/tmp/_gbsbuild/obj/bg_pictures_b3_gbc_alt_tilemap_attr.rel
                                          [ bg_pictures_b3_gbc_alt_tilemap_a ]
C:/tmp/_gbsbuild/obj/bg_pictures_b3_gbc_alt_tileset.rel
                                          [ bg_pictures_b3_gbc_alt_tileset ]
C:/tmp/_gbsbuild/obj/bg_pictures_b3_gbc_alt.rel
                                          [ bg_pictures_b3_gbc_alt ]
C:/tmp/_gbsbuild/obj/bg_pictures_b4_gb_alt_tilemap_attr.rel
                                          [ bg_pictures_b4_gb_alt_tilemap_at ]
C:/tmp/_gbsbuild/obj/bg_pictures_b4_gb_alt_tilemap.rel
                                          [ bg_pictures_b4_gb_alt_tilemap ]
C:/tmp/_gbsbuild/obj/bg_pictures_b4_gb_alt_tileset.rel
                                          [ bg_pictures_b4_gb_alt_tileset ]
C:/tmp/_gbsbuild/obj/bg_pictures_b4_gb_alt.rel
                                          [ bg_pictures_b4_gb_alt ]
C:/tmp/_gbsbuild/obj/bg_pictures_b4_gbc_alt_tilemap_attr.rel
                                          [ bg_pictures_b4_gbc_alt_tilemap_a ]
C:/tmp/_gbsbuild/obj/bg_pictures_b4_gbc_alt_tileset.rel
                                          [ bg_pictures_b4_gbc_alt_tileset ]
C:/tmp/_gbsbuild/obj/bg_pictures_b4_gbc_alt.rel
                                          [ bg_pictures_b4_gbc_alt ]
C:/tmp/_gbsbuild/obj/bg_pictures_b5_gb_alt_tilemap_attr.rel
                                          [ bg_pictures_b5_gb_alt_tilemap_at ]
C:/tmp/_gbsbuild/obj/bg_pictures_b5_gb_alt_tilemap.rel
                                          [ bg_pictures_b5_gb_alt_tilemap ]
C:/tmp/_gbsbuild/obj/bg_pictures_b5_gb_alt_tileset.rel
                                          [ bg_pictures_b5_gb_alt_tileset ]
C:/tmp/_gbsbuild/obj/bg_pictures_b5_gb_alt.rel
                                          [ bg_pictures_b5_gb_alt ]
C:/tmp/_gbsbuild/obj/bg_pictures_b5_gbc_alt_tilemap_attr.rel
                                          [ bg_pictures_b5_gbc_alt_tilemap_a ]
C:/tmp/_gbsbuild/obj/bg_pictures_b5_gbc_alt_tileset.rel
                                          [ bg_pictures_b5_gbc_alt_tileset ]
C:/tmp/_gbsbuild/obj/bg_pictures_b5_gbc_alt.rel
                                          [ bg_pictures_b5_gbc_alt ]
C:/tmp/_gbsbuild/obj/bg_pictures_b6_gb_alt_tilemap_attr.rel
                                          [ bg_pictures_b6_gb_alt_tilemap_at ]
C:/tmp/_gbsbuild/obj/bg_pictures_b6_gb_alt_tilemap.rel
                                          [ bg_pictures_b6_gb_alt_tilemap ]
C:/tmp/_gbsbuild/obj/bg_pictures_b6_gb_alt_tileset.rel
                                          [ bg_pictures_b6_gb_alt_tileset ]
C:/tmp/_gbsbuild/obj/bg_pictures_b6_gb_alt.rel
                                          [ bg_pictures_b6_gb_alt ]
C:/tmp/_gbsbuild/obj/bg_pictures_b6_gbc_alt_tilemap_attr.rel
                                          [ bg_pictures_b6_gbc_alt_tilemap_a ]
C:/tmp/_gbsbuild/obj/bg_pictures_b6_gbc_alt_tileset.rel
                                          [ bg_pictures_b6_gbc_alt_tileset ]
C:/tmp/_gbsbuild/obj/bg_pictures_b6_gbc_alt.rel
                                          [ bg_pictures_b6_gbc_alt ]
C:/tmp/_gbsbuild/obj/bg_pictures_b7_gb_alt_tilemap_attr.rel
                                          [ bg_pictures_b7_gb_alt_tilemap_at ]
C:/tmp/_gbsbuild/obj/bg_pictures_b7_gb_alt_tilemap.rel
                                          [ bg_pictures_b7_gb_alt_tilemap ]
C:/tmp/_gbsbuild/obj/bg_pictures_b7_gb_alt_tileset.rel
                                          [ bg_pictures_b7_gb_alt_tileset ]
C:/tmp/_gbsbuild/obj/bg_pictures_b7_gb_alt.rel
                                          [ bg_pictures_b7_gb_alt ]
C:/tmp/_gbsbuild/obj/bg_pictures_b7_gbc_alt_tilemap_attr.rel
                                          [ bg_pictures_b7_gbc_alt_tilemap_a ]
C:/tmp/_gbsbuild/obj/bg_pictures_b7_gbc_alt_tilemap.rel
                                          [ bg_pictures_b7_gbc_alt_tilemap ]
C:/tmp/_gbsbuild/obj/bg_pictures_b7_gbc_alt_tileset.rel
                                          [ bg_pictures_b7_gbc_alt_tileset ]
C:/tmp/_gbsbuild/obj/bg_pictures_b7_gbc_alt.rel
                                          [ bg_pictures_b7_gbc_alt ]
C:/tmp/_gbsbuild/obj/bg_pictures_b8_gb_alt_tilemap_attr.rel
                                          [ bg_pictures_b8_gb_alt_tilemap_at ]
C:/tmp/_gbsbuild/obj/bg_pictures_b8_gb_alt_tilemap.rel
                                          [ bg_pictures_b8_gb_alt_tilemap ]
C:/tmp/_gbsbuild/obj/bg_pictures_b8_gb_alt.rel
                                          [ bg_pictures_b8_gb_alt ]
C:/tmp/_gbsbuild/obj/bg_pictures_b8_gbc_alt_tileset.rel
                                          [ bg_pictures_b8_gbc_alt_tileset ]
C:/tmp/_gbsbuild/obj/bg_pictures_b8_gbc_alt.rel
                                          [ bg_pictures_b8_gbc_alt ]
C:/tmp/_gbsbuild/obj/bg_pictures_b9_gb_alt_tilemap_attr.rel
                                          [ bg_pictures_b9_gb_alt_tilemap_at ]
C:/tmp/_gbsbuild/obj/bg_pictures_b9_gb_alt_tilemap.rel
                                          [ bg_pictures_b9_gb_alt_tilemap ]
C:/tmp/_gbsbuild/obj/bg_pictures_b9_gb_alt_tileset.rel
                                          [ bg_pictures_b9_gb_alt_tileset ]
C:/tmp/_gbsbuild/obj/bg_pictures_b9_gb_alt.rel
                                          [ bg_pictures_b9_gb_alt ]
C:/tmp/_gbsbuild/obj/bg_pictures_cg_desktop_no_e_12_tilemap_attr.rel
                                          [ bg_pictures_cg_desktop_no_e_12_t ]
C:/tmp/_gbsbuild/obj/bg_pictures_cg_desktop_no_e_12_tilemap.rel
                                          [ bg_pictures_cg_desktop_no_e_12_t ]
C:/tmp/_gbsbuild/obj/bg_pictures_cg_desktop_no_e_12_tileset.rel
                                          [ bg_pictures_cg_desktop_no_e_12_t ]
C:/tmp/_gbsbuild/obj/bg_pictures_cg_desktop_no_e_12.rel
                                          [ bg_pictures_cg_desktop_no_e_12 ]
C:/tmp/_gbsbuild/obj/bg_pictures_cg_desktop_no_e_13_tilemap_attr.rel
                                          [ bg_pictures_cg_desktop_no_e_13_t ]
C:/tmp/_gbsbuild/obj/bg_pictures_cg_desktop_no_e_13_tilemap.rel
                                          [ bg_pictures_cg_desktop_no_e_13_t ]
C:/tmp/_gbsbuild/obj/bg_pictures_cg_desktop_no_e_13_tileset.rel
                                          [ bg_pictures_cg_desktop_no_e_13_t ]
C:/tmp/_gbsbuild/obj/bg_pictures_cg_desktop_no_e_13.rel
                                          [ bg_pictures_cg_desktop_no_e_13 ]
C:/tmp/_gbsbuild/obj/bg_pictures_cg_door1_gb_tilemap.rel
                                          [ bg_pictures_cg_door1_gb_tilemap ]
C:/tmp/_gbsbuild/obj/bg_pictures_cg_door1_gb_tileset.rel
                                          [ bg_pictures_cg_door1_gb_tileset ]
C:/tmp/_gbsbuild/obj/bg_pictures_cg_door1_gb.rel
                                          [ bg_pictures_cg_door1_gb ]
C:/tmp/_gbsbuild/obj/bg_pictures_cg_door2_gb_tilemap.rel
                                          [ bg_pictures_cg_door2_gb_tilemap ]
C:/tmp/_gbsbuild/obj/bg_pictures_cg_door2_gb_tileset.rel
                                          [ bg_pictures_cg_door2_gb_tileset ]
C:/tmp/_gbsbuild/obj/bg_pictures_cg_door2_gb.rel
                                          [ bg_pictures_cg_door2_gb ]
C:/tmp/_gbsbuild/obj/bg_pictures_cg_wake1_gb_tilemap_attr.rel
                                          [ bg_pictures_cg_wake1_gb_tilemap_ ]
C:/tmp/_gbsbuild/obj/bg_pictures_cg_wake1_gb_tilemap.rel
                                          [ bg_pictures_cg_wake1_gb_tilemap ]
C:/tmp/_gbsbuild/obj/bg_pictures_cg_wake1_gb_tileset.rel
                                          [ bg_pictures_cg_wake1_gb_tileset ]
C:/tmp/_gbsbuild/obj/bg_pictures_cg_wake1_gb.rel
                                          [ bg_pictures_cg_wake1_gb ]
C:/tmp/_gbsbuild/obj/bg_pictures_cg_wake1_gbc_tilemap_attr.rel
                                          [ bg_pictures_cg_wake1_gbc_tilemap ]
C:/tmp/_gbsbuild/obj/bg_pictures_cg_wake1_gbc_tileset.rel
                                          [ bg_pictures_cg_wake1_gbc_tileset ]
C:/tmp/_gbsbuild/obj/bg_pictures_cg_wake1_gbc.rel
                                          [ bg_pictures_cg_wake1_gbc ]
C:/tmp/_gbsbuild/obj/bg_pictures_cg_wake2_gb_tilemap_attr.rel
                                          [ bg_pictures_cg_wake2_gb_tilemap_ ]
C:/tmp/_gbsbuild/obj/bg_pictures_cg_wake2_gb_tilemap.rel
                                          [ bg_pictures_cg_wake2_gb_tilemap ]
C:/tmp/_gbsbuild/obj/bg_pictures_cg_wake2_gb_tileset.rel
                                          [ bg_pictures_cg_wake2_gb_tileset ]
C:/tmp/_gbsbuild/obj/bg_pictures_cg_wake2_gb.rel
                                          [ bg_pictures_cg_wake2_gb ]
C:/tmp/_gbsbuild/obj/bg_pictures_cg_wake2_gbc_tilemap_attr.rel
                                          [ bg_pictures_cg_wake2_gbc_tilemap ]
C:/tmp/_gbsbuild/obj/bg_pictures_cg_wake2_gbc_tilemap.rel
                                          [ bg_pictures_cg_wake2_gbc_tilemap ]
C:/tmp/_gbsbuild/obj/bg_pictures_cg_wake2_gbc_tileset.rel
                                          [ bg_pictures_cg_wake2_gbc_tileset ]
C:/tmp/_gbsbuild/obj/bg_pictures_cg_wake2_gbc.rel
                                          [ bg_pictures_cg_wake2_gbc ]
C:/tmp/_gbsbuild/obj/bg_pictures_cg_wake3_gb_tilemap_attr.rel
                                          [ bg_pictures_cg_wake3_gb_tilemap_ ]
C:/tmp/_gbsbuild/obj/bg_pictures_cg_wake3_gb_tilemap.rel
                                          [ bg_pictures_cg_wake3_gb_tilemap ]
C:/tmp/_gbsbuild/obj/bg_pictures_cg_wake3_gb_tileset.rel
                                          [ bg_pictures_cg_wake3_gb_tileset ]
C:/tmp/_gbsbuild/obj/bg_pictures_cg_wake3_gb.rel
                                          [ bg_pictures_cg_wake3_gb ]
C:/tmp/_gbsbuild/obj/bg_pictures_cg_wake3_gbc_tilemap_attr.rel
                                          [ bg_pictures_cg_wake3_gbc_tilemap ]
C:/tmp/_gbsbuild/obj/bg_pictures_cg_wake3_gbc_tilemap.rel
                                          [ bg_pictures_cg_wake3_gbc_tilemap ]
C:/tmp/_gbsbuild/obj/bg_pictures_cg_wake3_gbc_tileset.rel
                                          [ bg_pictures_cg_wake3_gbc_tileset ]
C:/tmp/_gbsbuild/obj/bg_pictures_cg_wake3_gbc.rel
                                          [ bg_pictures_cg_wake3_gbc ]
C:/tmp/_gbsbuild/obj/bg_pictures_cg_wake4_gb_tilemap_attr.rel
                                          [ bg_pictures_cg_wake4_gb_tilemap_ ]
C:/tmp/_gbsbuild/obj/bg_pictures_cg_wake4_gb_tilemap.rel
                                          [ bg_pictures_cg_wake4_gb_tilemap ]
C:/tmp/_gbsbuild/obj/bg_pictures_cg_wake4_gb_tileset.rel
                                          [ bg_pictures_cg_wake4_gb_tileset ]
C:/tmp/_gbsbuild/obj/bg_pictures_cg_wake4_gb.rel
                                          [ bg_pictures_cg_wake4_gb ]
C:/tmp/_gbsbuild/obj/bg_pictures_cg_wake4_gbc_tilemap_attr.rel
                                          [ bg_pictures_cg_wake4_gbc_tilemap ]
C:/tmp/_gbsbuild/obj/bg_pictures_cg_wake4_gbc_tilemap.rel
                                          [ bg_pictures_cg_wake4_gbc_tilemap ]
C:/tmp/_gbsbuild/obj/bg_pictures_cg_wake4_gbc_tileset.rel
                                          [ bg_pictures_cg_wake4_gbc_tileset ]
C:/tmp/_gbsbuild/obj/bg_pictures_cg_wake4_gbc.rel
                                          [ bg_pictures_cg_wake4_gbc ]
C:/tmp/_gbsbuild/obj/bg_pictures_cg_wake5_gb_tilemap.rel
                                          [ bg_pictures_cg_wake5_gb_tilemap ]
C:/tmp/_gbsbuild/obj/bg_pictures_cg_wake5_gb_tileset.rel
                                          [ bg_pictures_cg_wake5_gb_tileset ]
C:/tmp/_gbsbuild/obj/bg_pictures_cg_wake5_gb.rel
                                          [ bg_pictures_cg_wake5_gb ]
C:/tmp/_gbsbuild/obj/bg_pictures_cg_wake5_gbc_tilemap_attr.rel
                                          [ bg_pictures_cg_wake5_gbc_tilemap ]
C:/tmp/_gbsbuild/obj/bg_pictures_cg_wake5_gbc_tilemap.rel
                                          [ bg_pictures_cg_wake5_gbc_tilemap ]
C:/tmp/_gbsbuild/obj/bg_pictures_cg_wake5_gbc_tileset.rel
                                          [ bg_pictures_cg_wake5_gbc_tileset ]
C:/tmp/_gbsbuild/obj/bg_pictures_cg_wake5_gbc.rel
                                          [ bg_pictures_cg_wake5_gbc ]
C:/tmp/_gbsbuild/obj/bg_placeholder_tilemap.rel
                                          [ bg_placeholder_tilemap ]
C:/tmp/_gbsbuild/obj/bg_placeholder_tileset.rel
                                          [ bg_placeholder_tileset ]
C:/tmp/_gbsbuild/obj/bg_placeholder.rel   [ bg_placeholder ]
C:/tmp/_gbsbuild/obj/bg_startinghome_livingroomg_tilemap_attr.rel
                                          [ bg_startinghome_livingroomg_tile ]
C:/tmp/_gbsbuild/obj/bg_startinghome_livingroomg_tilemap.rel
                                          [ bg_startinghome_livingroomg_tile ]
C:/tmp/_gbsbuild/obj/bg_startinghome_livingroomg_tileset.rel
                                          [ bg_startinghome_livingroomg_tile ]
C:/tmp/_gbsbuild/obj/bg_startinghome_livingroomg.rel
                                          [ bg_startinghome_livingroomg ]
C:/tmp/_gbsbuild/obj/bg_startinghome_startgb_tilemap_attr.rel
                                          [ bg_startinghome_startgb_tilemap_ ]
C:/tmp/_gbsbuild/obj/bg_startinghome_startgb_tilemap.rel
                                          [ bg_startinghome_startgb_tilemap ]
C:/tmp/_gbsbuild/obj/bg_startinghome_startgb_tileset.rel
                                          [ bg_startinghome_startgb_tileset ]
C:/tmp/_gbsbuild/obj/bg_startinghome_startgb.rel
                                          [ bg_startinghome_startgb ]
C:/tmp/_gbsbuild/obj/border.rel           [ border ]
C:/tmp/_gbsbuild/obj/cursor_image.rel     [ cursor_image ]
C:/tmp/_gbsbuild/obj/font_gbs_mono.rel    [ font_gbs_mono ]
C:/tmp/_gbsbuild/obj/frame_image.rel      [ frame_image ]
C:/tmp/_gbsbuild/obj/game_signature.rel   [ game_signature ]
C:/tmp/_gbsbuild/obj/palette_0.rel        [ palette_0 ]
C:/tmp/_gbsbuild/obj/palette_1.rel        [ palette_1 ]
C:/tmp/_gbsbuild/obj/palette_10.rel       [ palette_10 ]
C:/tmp/_gbsbuild/obj/palette_11.rel       [ palette_11 ]
C:/tmp/_gbsbuild/obj/palette_12.rel       [ palette_12 ]
C:/tmp/_gbsbuild/obj/palette_13.rel       [ palette_13 ]
C:/tmp/_gbsbuild/obj/palette_14.rel       [ palette_14 ]
C:/tmp/_gbsbuild/obj/palette_15.rel       [ palette_15 ]
C:/tmp/_gbsbuild/obj/palette_16.rel       [ palette_16 ]
C:/tmp/_gbsbuild/obj/palette_17.rel       [ palette_17 ]
C:/tmp/_gbsbuild/obj/palette_18.rel       [ palette_18 ]
C:/tmp/_gbsbuild/obj/palette_19.rel       [ palette_19 ]
C:/tmp/_gbsbuild/obj/palette_2.rel        [ palette_2 ]
C:/tmp/_gbsbuild/obj/palette_20.rel       [ palette_20 ]
C:/tmp/_gbsbuild/obj/palette_21.rel       [ palette_21 ]
C:/tmp/_gbsbuild/obj/palette_22.rel       [ palette_22 ]
C:/tmp/_gbsbuild/obj/palette_23.rel       [ palette_23 ]
C:/tmp/_gbsbuild/obj/palette_24.rel       [ palette_24 ]
C:/tmp/_gbsbuild/obj/palette_25.rel       [ palette_25 ]
C:/tmp/_gbsbuild/obj/palette_26.rel       [ palette_26 ]
C:/tmp/_gbsbuild/obj/palette_27.rel       [ palette_27 ]
C:/tmp/_gbsbuild/obj/palette_28.rel       [ palette_28 ]
C:/tmp/_gbsbuild/obj/palette_29.rel       [ palette_29 ]
C:/tmp/_gbsbuild/obj/palette_3.rel        [ palette_3 ]
C:/tmp/_gbsbuild/obj/palette_30.rel       [ palette_30 ]
C:/tmp/_gbsbuild/obj/palette_31.rel       [ palette_31 ]
C:/tmp/_gbsbuild/obj/palette_4.rel        [ palette_4 ]
C:/tmp/_gbsbuild/obj/palette_5.rel        [ palette_5 ]
C:/tmp/_gbsbuild/obj/palette_6.rel        [ palette_6 ]
C:/tmp/_gbsbuild/obj/palette_7.rel        [ palette_7 ]
C:/tmp/_gbsbuild/obj/palette_8.rel        [ palette_8 ]
C:/tmp/_gbsbuild/obj/palette_9.rel        [ palette_9 ]
C:/tmp/_gbsbuild/obj/scene_b0_2_collisions.rel
                                          [ scene_b0_2_collisions ]
C:/tmp/_gbsbuild/obj/scene_b0_2_gbc_collisions.rel
                                          [ scene_b0_2_gbc_collisions ]
C:/tmp/_gbsbuild/obj/scene_b0_2_gbc_init.rel
                                          [ scene_b0_2_gbc_init ]
C:/tmp/_gbsbuild/obj/scene_b0_2_gbc.rel   [ scene_b0_2_gbc ]
C:/tmp/_gbsbuild/obj/scene_b0_2_init.rel  [ scene_b0_2_init ]
C:/tmp/_gbsbuild/obj/scene_b0_2.rel       [ scene_b0_2 ]
C:/tmp/_gbsbuild/obj/scene_b3_collisions.rel
                                          [ scene_b3_collisions ]
C:/tmp/_gbsbuild/obj/scene_b3_gbc_collisions.rel
                                          [ scene_b3_gbc_collisions ]
C:/tmp/_gbsbuild/obj/scene_b3_gbc_init.rel
                                          [ scene_b3_gbc_init ]
C:/tmp/_gbsbuild/obj/scene_b3_gbc.rel     [ scene_b3_gbc ]
C:/tmp/_gbsbuild/obj/scene_b3_init.rel    [ scene_b3_init ]
C:/tmp/_gbsbuild/obj/scene_b3.rel         [ scene_b3 ]
C:/tmp/_gbsbuild/obj/scene_b4_collisions.rel
                                          [ scene_b4_collisions ]
C:/tmp/_gbsbuild/obj/scene_b4_gbc_collisions.rel
                                          [ scene_b4_gbc_collisions ]
C:/tmp/_gbsbuild/obj/scene_b4_gbc_init.rel
                                          [ scene_b4_gbc_init ]
C:/tmp/_gbsbuild/obj/scene_b4_gbc.rel     [ scene_b4_gbc ]
C:/tmp/_gbsbuild/obj/scene_b4_init.rel    [ scene_b4_init ]
C:/tmp/_gbsbuild/obj/scene_b4.rel         [ scene_b4 ]
C:/tmp/_gbsbuild/obj/scene_b5_collisions.rel
                                          [ scene_b5_collisions ]
C:/tmp/_gbsbuild/obj/scene_b5_gbc_collisions.rel
                                          [ scene_b5_gbc_collisions ]
C:/tmp/_gbsbuild/obj/scene_b5_gbc_init.rel
                                          [ scene_b5_gbc_init ]
C:/tmp/_gbsbuild/obj/scene_b5_gbc.rel     [ scene_b5_gbc ]
C:/tmp/_gbsbuild/obj/scene_b5_init.rel    [ scene_b5_init ]
C:/tmp/_gbsbuild/obj/scene_b5.rel         [ scene_b5 ]
C:/tmp/_gbsbuild/obj/scene_b6_collisions.rel
                                          [ scene_b6_collisions ]
C:/tmp/_gbsbuild/obj/scene_b6_gbc_actors.rel
                                          [ scene_b6_gbc_actors ]
C:/tmp/_gbsbuild/obj/scene_b6_gbc_collisions.rel
                                          [ scene_b6_gbc_collisions ]
C:/tmp/_gbsbuild/obj/scene_b6_gbc_init.rel
                                          [ scene_b6_gbc_init ]
C:/tmp/_gbsbuild/obj/scene_b6_gbc_sprites.rel
                                          [ scene_b6_gbc_sprites ]
C:/tmp/_gbsbuild/obj/scene_b6_gbc.rel     [ scene_b6_gbc ]
C:/tmp/_gbsbuild/obj/scene_b6_init.rel    [ scene_b6_init ]
C:/tmp/_gbsbuild/obj/scene_b6.rel         [ scene_b6 ]
C:/tmp/_gbsbuild/obj/scene_b7_collisions.rel
                                          [ scene_b7_collisions ]
C:/tmp/_gbsbuild/obj/scene_b7_gbc_collisions.rel
                                          [ scene_b7_gbc_collisions ]
C:/tmp/_gbsbuild/obj/scene_b7_gbc_init.rel
                                          [ scene_b7_gbc_init ]
C:/tmp/_gbsbuild/obj/scene_b7_gbc.rel     [ scene_b7_gbc ]
C:/tmp/_gbsbuild/obj/scene_b7_init.rel    [ scene_b7_init ]
C:/tmp/_gbsbuild/obj/scene_b7.rel         [ scene_b7 ]
C:/tmp/_gbsbuild/obj/scene_b8_collisions.rel
                                          [ scene_b8_collisions ]
C:/tmp/_gbsbuild/obj/scene_b8_gbc_collisions.rel
                                          [ scene_b8_gbc_collisions ]
C:/tmp/_gbsbuild/obj/scene_b8_gbc_init.rel
                                          [ scene_b8_gbc_init ]
C:/tmp/_gbsbuild/obj/scene_b8_gbc.rel     [ scene_b8_gbc ]
C:/tmp/_gbsbuild/obj/scene_b8_init.rel    [ scene_b8_init ]
C:/tmp/_gbsbuild/obj/scene_b8.rel         [ scene_b8 ]
C:/tmp/_gbsbuild/obj/scene_b9_collisions.rel
                                          [ scene_b9_collisions ]
C:/tmp/_gbsbuild/obj/scene_b9_gbc_collisions.rel
                                          [ scene_b9_gbc_collisions ]
C:/tmp/_gbsbuild/obj/scene_b9_gbc_init.rel
                                          [ scene_b9_gbc_init ]
C:/tmp/_gbsbuild/obj/scene_b9_gbc.rel     [ scene_b9_gbc ]
C:/tmp/_gbsbuild/obj/scene_b9_init.rel    [ scene_b9_init ]
C:/tmp/_gbsbuild/obj/scene_b9.rel         [ scene_b9 ]
C:/tmp/_gbsbuild/obj/scene_basement_light_actors.rel
                                          [ scene_basement_light_actors ]
C:/tmp/_gbsbuild/obj/scene_basement_light_collisions.rel
                                          [ scene_basement_light_collisions ]
C:/tmp/_gbsbuild/obj/scene_basement_light_init.rel
                                          [ scene_basement_light_init ]
C:/tmp/_gbsbuild/obj/scene_basement_light_triggers.rel
                                          [ scene_basement_light_triggers ]
C:/tmp/_gbsbuild/obj/scene_basement_light.rel
                                          [ scene_basement_light ]
C:/tmp/_gbsbuild/obj/scene_basement_no_light_actors.rel
                                          [ scene_basement_no_light_actors ]
C:/tmp/_gbsbuild/obj/scene_basement_no_light_collisions.rel
                                          [ scene_basement_no_light_collisio ]
C:/tmp/_gbsbuild/obj/scene_basement_no_light_init.rel
                                          [ scene_basement_no_light_init ]
C:/tmp/_gbsbuild/obj/scene_basement_no_light_sprites.rel
                                          [ scene_basement_no_light_sprites ]
C:/tmp/_gbsbuild/obj/scene_basement_no_light_triggers.rel
                                          [ scene_basement_no_light_triggers ]
C:/tmp/_gbsbuild/obj/scene_basement_no_light.rel
                                          [ scene_basement_no_light ]
C:/tmp/_gbsbuild/obj/scene_basement_stairs_actors.rel
                                          [ scene_basement_stairs_actors ]
C:/tmp/_gbsbuild/obj/scene_basement_stairs_collisions.rel
                                          [ scene_basement_stairs_collisions ]
C:/tmp/_gbsbuild/obj/scene_basement_stairs_init.rel
                                          [ scene_basement_stairs_init ]
C:/tmp/_gbsbuild/obj/scene_basement_stairs_old_actors.rel
                                          [ scene_basement_stairs_old_actors ]
C:/tmp/_gbsbuild/obj/scene_basement_stairs_old_collisions.rel
                                          [ scene_basement_stairs_old_collis ]
C:/tmp/_gbsbuild/obj/scene_basement_stairs_old_init.rel
                                          [ scene_basement_stairs_old_init ]
C:/tmp/_gbsbuild/obj/scene_basement_stairs_old_sprites.rel
                                          [ scene_basement_stairs_old_sprite ]
C:/tmp/_gbsbuild/obj/scene_basement_stairs_old_triggers.rel
                                          [ scene_basement_stairs_old_trigge ]
C:/tmp/_gbsbuild/obj/scene_basement_stairs_old.rel
                                          [ scene_basement_stairs_old ]
C:/tmp/_gbsbuild/obj/scene_basement_stairs_sprites.rel
                                          [ scene_basement_stairs_sprites ]
C:/tmp/_gbsbuild/obj/scene_basement_stairs_triggers.rel
                                          [ scene_basement_stairs_triggers ]
C:/tmp/_gbsbuild/obj/scene_basement_stairs_with__actors.rel
                                          [ scene_basement_stairs_with__acto ]
C:/tmp/_gbsbuild/obj/scene_basement_stairs_with__collisions.rel
                                          [ scene_basement_stairs_with__coll ]
C:/tmp/_gbsbuild/obj/scene_basement_stairs_with__init.rel
                                          [ scene_basement_stairs_with__init ]
C:/tmp/_gbsbuild/obj/scene_basement_stairs_with__sprites.rel
                                          [ scene_basement_stairs_with__spri ]
C:/tmp/_gbsbuild/obj/scene_basement_stairs_with__triggers.rel
                                          [ scene_basement_stairs_with__trig ]
C:/tmp/_gbsbuild/obj/scene_basement_stairs_with_.rel
                                          [ scene_basement_stairs_with_ ]
C:/tmp/_gbsbuild/obj/scene_basement_stairs.rel
                                          [ scene_basement_stairs ]
C:/tmp/_gbsbuild/obj/scene_cg_door_1_collisions.rel
                                          [ scene_cg_door_1_collisions ]
C:/tmp/_gbsbuild/obj/scene_cg_door_1_init.rel
                                          [ scene_cg_door_1_init ]
C:/tmp/_gbsbuild/obj/scene_cg_door_1.rel  [ scene_cg_door_1 ]
C:/tmp/_gbsbuild/obj/scene_cg_door_2_collisions.rel
                                          [ scene_cg_door_2_collisions ]
C:/tmp/_gbsbuild/obj/scene_cg_door_2_init.rel
                                          [ scene_cg_door_2_init ]
C:/tmp/_gbsbuild/obj/scene_cg_door_2.rel  [ scene_cg_door_2 ]
C:/tmp/_gbsbuild/obj/scene_cg_wake_1_collisions.rel
                                          [ scene_cg_wake_1_collisions ]
C:/tmp/_gbsbuild/obj/scene_cg_wake_1_init.rel
                                          [ scene_cg_wake_1_init ]
C:/tmp/_gbsbuild/obj/scene_cg_wake_1.rel  [ scene_cg_wake_1 ]
C:/tmp/_gbsbuild/obj/scene_cg_wake_2_collisions.rel
                                          [ scene_cg_wake_2_collisions ]
C:/tmp/_gbsbuild/obj/scene_cg_wake_2_init.rel
                                          [ scene_cg_wake_2_init ]
C:/tmp/_gbsbuild/obj/scene_cg_wake_2.rel  [ scene_cg_wake_2 ]
C:/tmp/_gbsbuild/obj/scene_cg_wake_3_collisions.rel
                                          [ scene_cg_wake_3_collisions ]
C:/tmp/_gbsbuild/obj/scene_cg_wake_3_init.rel
                                          [ scene_cg_wake_3_init ]
C:/tmp/_gbsbuild/obj/scene_cg_wake_3.rel  [ scene_cg_wake_3 ]
C:/tmp/_gbsbuild/obj/scene_cg_wake_4_collisions.rel
                                          [ scene_cg_wake_4_collisions ]
C:/tmp/_gbsbuild/obj/scene_cg_wake_4_init.rel
                                          [ scene_cg_wake_4_init ]
C:/tmp/_gbsbuild/obj/scene_cg_wake_4.rel  [ scene_cg_wake_4 ]
C:/tmp/_gbsbuild/obj/scene_cg_wake_5_collisions.rel
                                          [ scene_cg_wake_5_collisions ]
C:/tmp/_gbsbuild/obj/scene_cg_wake_5_init.rel
                                          [ scene_cg_wake_5_init ]
C:/tmp/_gbsbuild/obj/scene_cg_wake_5.rel  [ scene_cg_wake_5 ]
C:/tmp/_gbsbuild/obj/scene_computer_cutscene_2_collisions.rel
                                          [ scene_computer_cutscene_2_collis ]
C:/tmp/_gbsbuild/obj/scene_computer_cutscene_2_init.rel
                                          [ scene_computer_cutscene_2_init ]
C:/tmp/_gbsbuild/obj/scene_computer_cutscene_2.rel
                                          [ scene_computer_cutscene_2 ]
C:/tmp/_gbsbuild/obj/scene_computer_cutscene_collisions.rel
                                          [ scene_computer_cutscene_collisio ]
C:/tmp/_gbsbuild/obj/scene_computer_cutscene_init.rel
                                          [ scene_computer_cutscene_init ]
C:/tmp/_gbsbuild/obj/scene_computer_cutscene.rel
                                          [ scene_computer_cutscene ]
C:/tmp/_gbsbuild/obj/scene_dev_room_2_actors.rel
                                          [ scene_dev_room_2_actors ]
C:/tmp/_gbsbuild/obj/scene_dev_room_2_collisions.rel
                                          [ scene_dev_room_2_collisions ]
C:/tmp/_gbsbuild/obj/scene_dev_room_2_init.rel
                                          [ scene_dev_room_2_init ]
C:/tmp/_gbsbuild/obj/scene_dev_room_2_sprites.rel
                                          [ scene_dev_room_2_sprites ]
C:/tmp/_gbsbuild/obj/scene_dev_room_2.rel
                                          [ scene_dev_room_2 ]
C:/tmp/_gbsbuild/obj/scene_dev_room_actors.rel
                                          [ scene_dev_room_actors ]
C:/tmp/_gbsbuild/obj/scene_dev_room_collisions.rel
                                          [ scene_dev_room_collisions ]
C:/tmp/_gbsbuild/obj/scene_dev_room_init.rel
                                          [ scene_dev_room_init ]
C:/tmp/_gbsbuild/obj/scene_dev_room_sprites.rel
                                          [ scene_dev_room_sprites ]
C:/tmp/_gbsbuild/obj/scene_dev_room.rel   [ scene_dev_room ]
C:/tmp/_gbsbuild/obj/scene_docks_actors.rel
                                          [ scene_docks_actors ]
C:/tmp/_gbsbuild/obj/scene_docks_collisions.rel
                                          [ scene_docks_collisions ]
C:/tmp/_gbsbuild/obj/scene_docks_init.rel
                                          [ scene_docks_init ]
C:/tmp/_gbsbuild/obj/scene_docks_sprites.rel
                                          [ scene_docks_sprites ]
C:/tmp/_gbsbuild/obj/scene_docks.rel      [ scene_docks ]
C:/tmp/_gbsbuild/obj/scene_gbc_start_dark_bathro_actors.rel
                                          [ scene_gbc_start_dark_bathro_acto ]
C:/tmp/_gbsbuild/obj/scene_gbc_start_dark_bathro_collisions.rel
                                          [ scene_gbc_start_dark_bathro_coll ]
C:/tmp/_gbsbuild/obj/scene_gbc_start_dark_bathro_init.rel
                                          [ scene_gbc_start_dark_bathro_init ]
C:/tmp/_gbsbuild/obj/scene_gbc_start_dark_bathro_sprites.rel
                                          [ scene_gbc_start_dark_bathro_spri ]
C:/tmp/_gbsbuild/obj/scene_gbc_start_dark_bathro_triggers.rel
                                          [ scene_gbc_start_dark_bathro_trig ]
C:/tmp/_gbsbuild/obj/scene_gbc_start_dark_bathro.rel
                                          [ scene_gbc_start_dark_bathro ]
C:/tmp/_gbsbuild/obj/scene_gbc_wake_01_collisions.rel
                                          [ scene_gbc_wake_01_collisions ]
C:/tmp/_gbsbuild/obj/scene_gbc_wake_01_init.rel
                                          [ scene_gbc_wake_01_init ]
C:/tmp/_gbsbuild/obj/scene_gbc_wake_01.rel
                                          [ scene_gbc_wake_01 ]
C:/tmp/_gbsbuild/obj/scene_gbc_wake_02_collisions.rel
                                          [ scene_gbc_wake_02_collisions ]
C:/tmp/_gbsbuild/obj/scene_gbc_wake_02_init.rel
                                          [ scene_gbc_wake_02_init ]
C:/tmp/_gbsbuild/obj/scene_gbc_wake_02.rel
                                          [ scene_gbc_wake_02 ]
C:/tmp/_gbsbuild/obj/scene_gbc_wake_03_collisions.rel
                                          [ scene_gbc_wake_03_collisions ]
C:/tmp/_gbsbuild/obj/scene_gbc_wake_03_init.rel
                                          [ scene_gbc_wake_03_init ]
C:/tmp/_gbsbuild/obj/scene_gbc_wake_03.rel
                                          [ scene_gbc_wake_03 ]
C:/tmp/_gbsbuild/obj/scene_gbc_wake_04_collisions.rel
                                          [ scene_gbc_wake_04_collisions ]
C:/tmp/_gbsbuild/obj/scene_gbc_wake_04_init.rel
                                          [ scene_gbc_wake_04_init ]
C:/tmp/_gbsbuild/obj/scene_gbc_wake_04.rel
                                          [ scene_gbc_wake_04 ]
C:/tmp/_gbsbuild/obj/scene_gbc_wake_05_collisions.rel
                                          [ scene_gbc_wake_05_collisions ]
C:/tmp/_gbsbuild/obj/scene_gbc_wake_05_init.rel
                                          [ scene_gbc_wake_05_init ]
C:/tmp/_gbsbuild/obj/scene_gbc_wake_05.rel
                                          [ scene_gbc_wake_05 ]
C:/tmp/_gbsbuild/obj/scene_input_password_2_0_actors.rel
                                          [ scene_input_password_2_0_actors ]
C:/tmp/_gbsbuild/obj/scene_input_password_2_0_collisions.rel
                                          [ scene_input_password_2_0_collisi ]
C:/tmp/_gbsbuild/obj/scene_input_password_2_0_init.rel
                                          [ scene_input_password_2_0_init ]
C:/tmp/_gbsbuild/obj/scene_input_password_2_0_sprites.rel
                                          [ scene_input_password_2_0_sprites ]
C:/tmp/_gbsbuild/obj/scene_input_password_2_0_triggers.rel
                                          [ scene_input_password_2_0_trigger ]
C:/tmp/_gbsbuild/obj/scene_input_password_2_0.rel
                                          [ scene_input_password_2_0 ]
C:/tmp/_gbsbuild/obj/scene_input_password_old__actors.rel
                                          [ scene_input_password_old__actors ]
C:/tmp/_gbsbuild/obj/scene_input_password_old__collisions.rel
                                          [ scene_input_password_old__collis ]
C:/tmp/_gbsbuild/obj/scene_input_password_old__init.rel
                                          [ scene_input_password_old__init ]
C:/tmp/_gbsbuild/obj/scene_input_password_old__sprites.rel
                                          [ scene_input_password_old__sprite ]
C:/tmp/_gbsbuild/obj/scene_input_password_old__triggers.rel
                                          [ scene_input_password_old__trigge ]
C:/tmp/_gbsbuild/obj/scene_input_password_old_.rel
                                          [ scene_input_password_old_ ]
C:/tmp/_gbsbuild/obj/scene_inventory_tester_actors.rel
                                          [ scene_inventory_tester_actors ]
C:/tmp/_gbsbuild/obj/scene_inventory_tester_collisions.rel
                                          [ scene_inventory_tester_collision ]
C:/tmp/_gbsbuild/obj/scene_inventory_tester_init.rel
                                          [ scene_inventory_tester_init ]
C:/tmp/_gbsbuild/obj/scene_inventory_tester_sprites.rel
                                          [ scene_inventory_tester_sprites ]
C:/tmp/_gbsbuild/obj/scene_inventory_tester.rel
                                          [ scene_inventory_tester ]
C:/tmp/_gbsbuild/obj/scene_item_screen_1_old_actors.rel
                                          [ scene_item_screen_1_old_actors ]
C:/tmp/_gbsbuild/obj/scene_item_screen_1_old_collisions.rel
                                          [ scene_item_screen_1_old_collisio ]
C:/tmp/_gbsbuild/obj/scene_item_screen_1_old_init.rel
                                          [ scene_item_screen_1_old_init ]
C:/tmp/_gbsbuild/obj/scene_item_screen_1_old_sprites.rel
                                          [ scene_item_screen_1_old_sprites ]
C:/tmp/_gbsbuild/obj/scene_item_screen_1_old_triggers.rel
                                          [ scene_item_screen_1_old_triggers ]
C:/tmp/_gbsbuild/obj/scene_item_screen_1_old.rel
                                          [ scene_item_screen_1_old ]
C:/tmp/_gbsbuild/obj/scene_item_screen_2_new_actors.rel
                                          [ scene_item_screen_2_new_actors ]
C:/tmp/_gbsbuild/obj/scene_item_screen_2_new_collisions.rel
                                          [ scene_item_screen_2_new_collisio ]
C:/tmp/_gbsbuild/obj/scene_item_screen_2_new_init.rel
                                          [ scene_item_screen_2_new_init ]
C:/tmp/_gbsbuild/obj/scene_item_screen_2_new_sprites.rel
                                          [ scene_item_screen_2_new_sprites ]
C:/tmp/_gbsbuild/obj/scene_item_screen_2_new_triggers.rel
                                          [ scene_item_screen_2_new_triggers ]
C:/tmp/_gbsbuild/obj/scene_item_screen_2_new.rel
                                          [ scene_item_screen_2_new ]
C:/tmp/_gbsbuild/obj/scene_power_off__collisions.rel
                                          [ scene_power_off__collisions ]
C:/tmp/_gbsbuild/obj/scene_power_off__init.rel
                                          [ scene_power_off__init ]
C:/tmp/_gbsbuild/obj/scene_power_off_.rel
                                          [ scene_power_off_ ]
C:/tmp/_gbsbuild/obj/scene_start_dark_bathroom_actors.rel
                                          [ scene_start_dark_bathroom_actors ]
C:/tmp/_gbsbuild/obj/scene_start_dark_bathroom_collisions.rel
                                          [ scene_start_dark_bathroom_collis ]
C:/tmp/_gbsbuild/obj/scene_start_dark_bathroom_init.rel
                                          [ scene_start_dark_bathroom_init ]
C:/tmp/_gbsbuild/obj/scene_start_dark_bathroom_sprites.rel
                                          [ scene_start_dark_bathroom_sprite ]
C:/tmp/_gbsbuild/obj/scene_start_dark_bathroom_triggers.rel
                                          [ scene_start_dark_bathroom_trigge ]
C:/tmp/_gbsbuild/obj/scene_start_dark_bathroom.rel
                                          [ scene_start_dark_bathroom ]
C:/tmp/_gbsbuild/obj/scene_start_dark_bedroom_actors.rel
                                          [ scene_start_dark_bedroom_actors ]
C:/tmp/_gbsbuild/obj/scene_start_dark_bedroom_collisions.rel
                                          [ scene_start_dark_bedroom_collisi ]
C:/tmp/_gbsbuild/obj/scene_start_dark_bedroom_init.rel
                                          [ scene_start_dark_bedroom_init ]
C:/tmp/_gbsbuild/obj/scene_start_dark_bedroom_sprites.rel
                                          [ scene_start_dark_bedroom_sprites ]
C:/tmp/_gbsbuild/obj/scene_start_dark_bedroom_triggers.rel
                                          [ scene_start_dark_bedroom_trigger ]
C:/tmp/_gbsbuild/obj/scene_start_dark_bedroom.rel
                                          [ scene_start_dark_bedroom ]
C:/tmp/_gbsbuild/obj/scene_start_dark_livingroom_actors.rel
                                          [ scene_start_dark_livingroom_acto ]
C:/tmp/_gbsbuild/obj/scene_start_dark_livingroom_collisions.rel
                                          [ scene_start_dark_livingroom_coll ]
C:/tmp/_gbsbuild/obj/scene_start_dark_livingroom_init.rel
                                          [ scene_start_dark_livingroom_init ]
C:/tmp/_gbsbuild/obj/scene_start_dark_livingroom_sprites.rel
                                          [ scene_start_dark_livingroom_spri ]
C:/tmp/_gbsbuild/obj/scene_start_dark_livingroom_triggers.rel
                                          [ scene_start_dark_livingroom_trig ]
C:/tmp/_gbsbuild/obj/scene_start_dark_livingroom.rel
                                          [ scene_start_dark_livingroom ]
C:/tmp/_gbsbuild/obj/scene_the_end_scene__collisions.rel
                                          [ scene_the_end_scene__collisions ]
C:/tmp/_gbsbuild/obj/scene_the_end_scene__init.rel
                                          [ scene_the_end_scene__init ]
C:/tmp/_gbsbuild/obj/scene_the_end_scene_.rel
                                          [ scene_the_end_scene_ ]
C:/tmp/_gbsbuild/obj/scene_tile_screen_gbc_actors.rel
                                          [ scene_tile_screen_gbc_actors ]
C:/tmp/_gbsbuild/obj/scene_tile_screen_gbc_collisions.rel
                                          [ scene_tile_screen_gbc_collisions ]
C:/tmp/_gbsbuild/obj/scene_tile_screen_gbc_init.rel
                                          [ scene_tile_screen_gbc_init ]
C:/tmp/_gbsbuild/obj/scene_tile_screen_gbc_sprites.rel
                                          [ scene_tile_screen_gbc_sprites ]
C:/tmp/_gbsbuild/obj/scene_tile_screen_gbc.rel
                                          [ scene_tile_screen_gbc ]
C:/tmp/_gbsbuild/obj/scene_title_screen_actors.rel
                                          [ scene_title_screen_actors ]
C:/tmp/_gbsbuild/obj/scene_title_screen_collisions.rel
                                          [ scene_title_screen_collisions ]
C:/tmp/_gbsbuild/obj/scene_title_screen_init.rel
                                          [ scene_title_screen_init ]
C:/tmp/_gbsbuild/obj/scene_title_screen.rel
                                          [ scene_title_screen ]
C:/tmp/_gbsbuild/obj/script_engine_init.rel
                                          [  ]
C:/tmp/_gbsbuild/obj/script_input_0.rel   [ script_input_0 ]
C:/tmp/_gbsbuild/obj/script_input_1.rel   [ script_input_1 ]
C:/tmp/_gbsbuild/obj/script_input_10.rel  [ script_input_10 ]
C:/tmp/_gbsbuild/obj/script_input_11.rel  [ script_input_11 ]
C:/tmp/_gbsbuild/obj/script_input_12.rel  [ script_input_12 ]
C:/tmp/_gbsbuild/obj/script_input_13.rel  [ script_input_13 ]
C:/tmp/_gbsbuild/obj/script_input_14.rel  [ script_input_14 ]
C:/tmp/_gbsbuild/obj/script_input_15.rel  [ script_input_15 ]
C:/tmp/_gbsbuild/obj/script_input_16.rel  [ script_input_16 ]
C:/tmp/_gbsbuild/obj/script_input_17.rel  [ script_input_17 ]
C:/tmp/_gbsbuild/obj/script_input_18.rel  [ script_input_18 ]
C:/tmp/_gbsbuild/obj/script_input_19.rel  [ script_input_19 ]
C:/tmp/_gbsbuild/obj/script_input_2.rel   [ script_input_2 ]
C:/tmp/_gbsbuild/obj/script_input_20.rel  [ script_input_20 ]
C:/tmp/_gbsbuild/obj/script_input_21.rel  [ script_input_21 ]
C:/tmp/_gbsbuild/obj/script_input_22.rel  [ script_input_22 ]
C:/tmp/_gbsbuild/obj/script_input_23.rel  [ script_input_23 ]
C:/tmp/_gbsbuild/obj/script_input_24.rel  [ script_input_24 ]
C:/tmp/_gbsbuild/obj/script_input_25.rel  [ script_input_25 ]
C:/tmp/_gbsbuild/obj/script_input_26.rel  [ script_input_26 ]
C:/tmp/_gbsbuild/obj/script_input_27.rel  [ script_input_27 ]
C:/tmp/_gbsbuild/obj/script_input_28.rel  [ script_input_28 ]
C:/tmp/_gbsbuild/obj/script_input_29.rel  [ script_input_29 ]
C:/tmp/_gbsbuild/obj/script_input_3.rel   [ script_input_3 ]
C:/tmp/_gbsbuild/obj/script_input_30.rel  [ script_input_30 ]
C:/tmp/_gbsbuild/obj/script_input_31.rel  [ script_input_31 ]
C:/tmp/_gbsbuild/obj/script_input_32.rel  [ script_input_32 ]
C:/tmp/_gbsbuild/obj/script_input_33.rel  [ script_input_33 ]
C:/tmp/_gbsbuild/obj/script_input_34.rel  [ script_input_34 ]
C:/tmp/_gbsbuild/obj/script_input_35.rel  [ script_input_35 ]
C:/tmp/_gbsbuild/obj/script_input_36.rel  [ script_input_36 ]
C:/tmp/_gbsbuild/obj/script_input_37.rel  [ script_input_37 ]
C:/tmp/_gbsbuild/obj/script_input_38.rel  [ script_input_38 ]
C:/tmp/_gbsbuild/obj/script_input_39.rel  [ script_input_39 ]
C:/tmp/_gbsbuild/obj/script_input_4.rel   [ script_input_4 ]
C:/tmp/_gbsbuild/obj/script_input_40.rel  [ script_input_40 ]
C:/tmp/_gbsbuild/obj/script_input_41.rel  [ script_input_41 ]
C:/tmp/_gbsbuild/obj/script_input_42.rel  [ script_input_42 ]
C:/tmp/_gbsbuild/obj/script_input_43.rel  [ script_input_43 ]
C:/tmp/_gbsbuild/obj/script_input_44.rel  [ script_input_44 ]
C:/tmp/_gbsbuild/obj/script_input_45.rel  [ script_input_45 ]
C:/tmp/_gbsbuild/obj/script_input_5.rel   [ script_input_5 ]
C:/tmp/_gbsbuild/obj/script_input_6.rel   [ script_input_6 ]
C:/tmp/_gbsbuild/obj/script_input_7.rel   [ script_input_7 ]
C:/tmp/_gbsbuild/obj/script_input_8.rel   [ script_input_8 ]
C:/tmp/_gbsbuild/obj/script_input_9.rel   [ script_input_9 ]
C:/tmp/_gbsbuild/obj/script_item_init_inv.rel
                                          [ script_item_init_inv ]
C:/tmp/_gbsbuild/obj/script_item_interactable_in.rel
                                          [ script_item_interactable_in ]
C:/tmp/_gbsbuild/obj/script_menu_start_button_be.rel
                                          [ script_menu_start_button_be ]
C:/tmp/_gbsbuild/obj/script_timer_0.rel   [ script_timer_0 ]
C:/tmp/_gbsbuild/obj/script_timer_1.rel   [ script_timer_1 ]
C:/tmp/_gbsbuild/obj/script_timer_10.rel  [ script_timer_10 ]
C:/tmp/_gbsbuild/obj/script_timer_2.rel   [ script_timer_2 ]
C:/tmp/_gbsbuild/obj/script_timer_3.rel   [ script_timer_3 ]
C:/tmp/_gbsbuild/obj/script_timer_4.rel   [ script_timer_4 ]
C:/tmp/_gbsbuild/obj/script_timer_5.rel   [ script_timer_5 ]
C:/tmp/_gbsbuild/obj/script_timer_6.rel   [ script_timer_6 ]
C:/tmp/_gbsbuild/obj/script_timer_7.rel   [ script_timer_7 ]
C:/tmp/_gbsbuild/obj/script_timer_8.rel   [ script_timer_8 ]
C:/tmp/_gbsbuild/obj/script_timer_9.rel   [ script_timer_9 ]
C:/tmp/_gbsbuild/obj/sound_branch_snap_wav.rel
                                          [ sound_branch_snap_wav ]
C:/tmp/_gbsbuild/obj/sound_item_get_wav.rel
                                          [ sound_item_get_wav ]
C:/tmp/_gbsbuild/obj/sound_legacy_0.rel   [ sound_legacy_0 ]
C:/tmp/_gbsbuild/obj/sound_legacy_1.rel   [ sound_legacy_1 ]
C:/tmp/_gbsbuild/obj/sound_legacy_2.rel   [ sound_legacy_2 ]
C:/tmp/_gbsbuild/obj/sound_legacy_3.rel   [ sound_legacy_3 ]
C:/tmp/_gbsbuild/obj/sound_pc_denied_wav.rel
                                          [ sound_pc_denied_wav ]
C:/tmp/_gbsbuild/obj/sound_pc_logon_wav.rel
                                          [ sound_pc_logon_wav ]
C:/tmp/_gbsbuild/obj/sound_pc_messagebox_wav.rel
                                          [ sound_pc_messagebox_wav ]
C:/tmp/_gbsbuild/obj/sound_pc_off_wav.rel
                                          [ sound_pc_off_wav ]
C:/tmp/_gbsbuild/obj/sound_pc_on_wav.rel  [ sound_pc_on_wav ]
C:/tmp/_gbsbuild/obj/sprite_actor_tileset.rel
                                          [ sprite_actor_tileset ]
C:/tmp/_gbsbuild/obj/sprite_actor.rel     [ sprite_actor ]
C:/tmp/_gbsbuild/obj/sprite_bed_nikoinbed_niko_i_tileset.rel
                                          [ sprite_bed_nikoinbed_niko_i_tile ]
C:/tmp/_gbsbuild/obj/sprite_bed_nikoinbed_niko_i.rel
                                          [ sprite_bed_nikoinbed_niko_i ]
C:/tmp/_gbsbuild/obj/sprite_bed_nikoinbed_niko_o_tileset.rel
                                          [ sprite_bed_nikoinbed_niko_o_tile ]
C:/tmp/_gbsbuild/obj/sprite_bed_nikoinbed_niko_o.rel
                                          [ sprite_bed_nikoinbed_niko_o ]
C:/tmp/_gbsbuild/obj/sprite_characters_niko_niko_0_tileset.rel
                                          [ sprite_characters_niko_niko_0_ti ]
C:/tmp/_gbsbuild/obj/sprite_characters_niko_niko_0.rel
                                          [ sprite_characters_niko_niko_0 ]
C:/tmp/_gbsbuild/obj/sprite_characters_niko_niko_1_tileset.rel
                                          [ sprite_characters_niko_niko_1_ti ]
C:/tmp/_gbsbuild/obj/sprite_characters_niko_niko_1.rel
                                          [ sprite_characters_niko_niko_1 ]
C:/tmp/_gbsbuild/obj/sprite_characters_niko_niko_2_tileset.rel
                                          [ sprite_characters_niko_niko_2_ti ]
C:/tmp/_gbsbuild/obj/sprite_characters_niko_niko_2.rel
                                          [ sprite_characters_niko_niko_2 ]
C:/tmp/_gbsbuild/obj/sprite_characters_niko_niko_3_tileset.rel
                                          [ sprite_characters_niko_niko_3_ti ]
C:/tmp/_gbsbuild/obj/sprite_characters_niko_niko_3.rel
                                          [ sprite_characters_niko_niko_3 ]
C:/tmp/_gbsbuild/obj/sprite_characters_niko_niko_tileset.rel
                                          [ sprite_characters_niko_niko_tile ]
C:/tmp/_gbsbuild/obj/sprite_characters_niko_niko.rel
                                          [ sprite_characters_niko_niko ]
C:/tmp/_gbsbuild/obj/sprite_computer_computer_of_tileset.rel
                                          [ sprite_computer_computer_of_tile ]
C:/tmp/_gbsbuild/obj/sprite_computer_computer_of.rel
                                          [ sprite_computer_computer_of ]
C:/tmp/_gbsbuild/obj/sprite_cutscenes_niko_face__tileset.rel
                                          [ sprite_cutscenes_niko_face__tile ]
C:/tmp/_gbsbuild/obj/sprite_cutscenes_niko_face_.rel
                                          [ sprite_cutscenes_niko_face_ ]
C:/tmp/_gbsbuild/obj/sprite_faces_louis_maxnexus_tileset.rel
                                          [ sprite_faces_louis_maxnexus_tile ]
C:/tmp/_gbsbuild/obj/sprite_faces_louis_maxnexus.rel
                                          [ sprite_faces_louis_maxnexus ]
C:/tmp/_gbsbuild/obj/sprite_faces_nikoamazed_tileset.rel
                                          [ sprite_faces_nikoamazed_tileset ]
C:/tmp/_gbsbuild/obj/sprite_faces_nikoamazed.rel
                                          [ sprite_faces_nikoamazed ]
C:/tmp/_gbsbuild/obj/sprite_fire_starts_start_fi_0_tileset.rel
                                          [ sprite_fire_starts_start_fi_0_ti ]
C:/tmp/_gbsbuild/obj/sprite_fire_starts_start_fi_0.rel
                                          [ sprite_fire_starts_start_fi_0 ]
C:/tmp/_gbsbuild/obj/sprite_fire_starts_start_fi_tileset.rel
                                          [ sprite_fire_starts_start_fi_tile ]
C:/tmp/_gbsbuild/obj/sprite_fire_starts_start_fi.rel
                                          [ sprite_fire_starts_start_fi ]
C:/tmp/_gbsbuild/obj/sprite_fire_starts_start_sp_tileset.rel
                                          [ sprite_fire_starts_start_sp_tile ]
C:/tmp/_gbsbuild/obj/sprite_fire_starts_start_sp.rel
                                          [ sprite_fire_starts_start_sp ]
C:/tmp/_gbsbuild/obj/sprite_generic_invisible_co_tileset.rel
                                          [ sprite_generic_invisible_co_tile ]
C:/tmp/_gbsbuild/obj/sprite_generic_invisible_co.rel
                                          [ sprite_generic_invisible_co ]
C:/tmp/_gbsbuild/obj/sprite_generic_invisible.rel
                                          [ sprite_generic_invisible ]
C:/tmp/_gbsbuild/obj/sprite_icons_item_start_bot_0_tileset.rel
                                          [ sprite_icons_item_start_bot_0_ti ]
C:/tmp/_gbsbuild/obj/sprite_icons_item_start_bot_0.rel
                                          [ sprite_icons_item_start_bot_0 ]
C:/tmp/_gbsbuild/obj/sprite_icons_item_start_bot_tileset.rel
                                          [ sprite_icons_item_start_bot_tile ]
C:/tmp/_gbsbuild/obj/sprite_icons_item_start_bot.rel
                                          [ sprite_icons_item_start_bot ]
C:/tmp/_gbsbuild/obj/sprite_icons_item_start_bra_0_tileset.rel
                                          [ sprite_icons_item_start_bra_0_ti ]
C:/tmp/_gbsbuild/obj/sprite_icons_item_start_bra_0.rel
                                          [ sprite_icons_item_start_bra_0 ]
C:/tmp/_gbsbuild/obj/sprite_icons_item_start_bra_tileset.rel
                                          [ sprite_icons_item_start_bra_tile ]
C:/tmp/_gbsbuild/obj/sprite_icons_item_start_bra.rel
                                          [ sprite_icons_item_start_bra ]
C:/tmp/_gbsbuild/obj/sprite_icons_item_start_key_tileset.rel
                                          [ sprite_icons_item_start_key_tile ]
C:/tmp/_gbsbuild/obj/sprite_icons_item_start_key.rel
                                          [ sprite_icons_item_start_key ]
C:/tmp/_gbsbuild/obj/sprite_icons_item_start_lig_tileset.rel
                                          [ sprite_icons_item_start_lig_tile ]
C:/tmp/_gbsbuild/obj/sprite_icons_item_start_lig.rel
                                          [ sprite_icons_item_start_lig ]
C:/tmp/_gbsbuild/obj/sprite_icons_item_start_rem_tileset.rel
                                          [ sprite_icons_item_start_rem_tile ]
C:/tmp/_gbsbuild/obj/sprite_icons_item_start_rem.rel
                                          [ sprite_icons_item_start_rem ]
C:/tmp/_gbsbuild/obj/sprite_icons_item_start_tor_tileset.rel
                                          [ sprite_icons_item_start_tor_tile ]
C:/tmp/_gbsbuild/obj/sprite_icons_item_start_tor.rel
                                          [ sprite_icons_item_start_tor ]
C:/tmp/_gbsbuild/obj/sprite_mirror_gbc_tileset.rel
                                          [ sprite_mirror_gbc_tileset ]
C:/tmp/_gbsbuild/obj/sprite_mirror_gbc.rel
                                          [ sprite_mirror_gbc ]
C:/tmp/_gbsbuild/obj/sprite_mirror_gbc2_tileset.rel
                                          [ sprite_mirror_gbc2_tileset ]
C:/tmp/_gbsbuild/obj/sprite_mirror_gbc2.rel
                                          [ sprite_mirror_gbc2 ]
C:/tmp/_gbsbuild/obj/sprite_niko_possible_redesi_0_tileset.rel
                                          [ sprite_niko_possible_redesi_0_ti ]
C:/tmp/_gbsbuild/obj/sprite_niko_possible_redesi_0.rel
                                          [ sprite_niko_possible_redesi_0 ]
C:/tmp/_gbsbuild/obj/sprite_niko_possible_redesi_tileset.rel
                                          [ sprite_niko_possible_redesi_tile ]
C:/tmp/_gbsbuild/obj/sprite_niko_possible_redesi.rel
                                          [ sprite_niko_possible_redesi ]
C:/tmp/_gbsbuild/obj/sprite_scarf01_tileset.rel
                                          [ sprite_scarf01_tileset ]
C:/tmp/_gbsbuild/obj/sprite_scarf01.rel   [ sprite_scarf01 ]
C:/tmp/_gbsbuild/obj/sprite_static_tileset.rel
                                          [ sprite_static_tileset ]
C:/tmp/_gbsbuild/obj/sprite_static.rel    [ sprite_static ]
C:/tmp/_gbsbuild/obj/sprite_text_sprite_numbers__0_tileset.rel
                                          [ sprite_text_sprite_numbers__0_ti ]
C:/tmp/_gbsbuild/obj/sprite_text_sprite_numbers__0.rel
                                          [ sprite_text_sprite_numbers__0 ]
C:/tmp/_gbsbuild/obj/sprite_text_sprite_numbers__tileset.rel
                                          [ sprite_text_sprite_numbers__tile ]
C:/tmp/_gbsbuild/obj/sprite_text_sprite_numbers_.rel
                                          [ sprite_text_sprite_numbers_ ]
C:/tmp/_gbsbuild/obj/spritesheet_none.rel
                                          [ spritesheet_none ]
C:/tmp/_gbsbuild/obj/trigger_0_interact.rel
                                          [ trigger_0_interact ]
C:/tmp/_gbsbuild/obj/trigger_1_interact.rel
                                          [ trigger_1_interact ]
C:/tmp/_gbsbuild/obj/trigger_10_interact.rel
                                          [ trigger_10_interact ]
C:/tmp/_gbsbuild/obj/trigger_11_interact.rel
                                          [ trigger_11_interact ]
C:/tmp/_gbsbuild/obj/trigger_12_interact.rel
                                          [ trigger_12_interact ]
C:/tmp/_gbsbuild/obj/trigger_13_interact.rel
                                          [ trigger_13_interact ]
C:/tmp/_gbsbuild/obj/trigger_14_interact.rel
                                          [ trigger_14_interact ]
C:/tmp/_gbsbuild/obj/trigger_15_interact.rel
                                          [ trigger_15_interact ]
C:/tmp/_gbsbuild/obj/trigger_16_interact.rel
                                          [ trigger_16_interact ]
C:/tmp/_gbsbuild/obj/trigger_17_interact.rel
                                          [ trigger_17_interact ]
C:/tmp/_gbsbuild/obj/trigger_18_interact.rel
                                          [ trigger_18_interact ]
C:/tmp/_gbsbuild/obj/trigger_19_interact.rel
                                          [ trigger_19_interact ]
C:/tmp/_gbsbuild/obj/trigger_2_interact.rel
                                          [ trigger_2_interact ]
C:/tmp/_gbsbuild/obj/trigger_20_interact.rel
                                          [ trigger_20_interact ]
C:/tmp/_gbsbuild/obj/trigger_21_interact.rel
                                          [ trigger_21_interact ]
C:/tmp/_gbsbuild/obj/trigger_22_interact.rel
                                          [ trigger_22_interact ]
C:/tmp/_gbsbuild/obj/trigger_23_interact.rel
                                          [ trigger_23_interact ]
C:/tmp/_gbsbuild/obj/trigger_24_interact.rel
                                          [ trigger_24_interact ]
C:/tmp/_gbsbuild/obj/trigger_25_interact.rel
                                          [ trigger_25_interact ]
C:/tmp/_gbsbuild/obj/trigger_26_interact.rel
                                          [ trigger_26_interact ]
C:/tmp/_gbsbuild/obj/trigger_27_interact.rel
                                          [ trigger_27_interact ]
C:/tmp/_gbsbuild/obj/trigger_28_interact.rel
                                          [ trigger_28_interact ]
C:/tmp/_gbsbuild/obj/trigger_29_interact.rel
                                          [ trigger_29_interact ]
C:/tmp/_gbsbuild/obj/trigger_3_interact.rel
                                          [ trigger_3_interact ]
C:/tmp/_gbsbuild/obj/trigger_30_interact.rel
                                          [ trigger_30_interact ]
C:/tmp/_gbsbuild/obj/trigger_31_interact.rel
                                          [ trigger_31_interact ]
C:/tmp/_gbsbuild/obj/trigger_32_interact.rel
                                          [ trigger_32_interact ]
C:/tmp/_gbsbuild/obj/trigger_33_interact.rel
                                          [ trigger_33_interact ]
C:/tmp/_gbsbuild/obj/trigger_34_interact.rel
                                          [ trigger_34_interact ]
C:/tmp/_gbsbuild/obj/trigger_35_interact.rel
                                          [ trigger_35_interact ]
C:/tmp/_gbsbuild/obj/trigger_37_interact.rel
                                          [ trigger_37_interact ]
C:/tmp/_gbsbuild/obj/trigger_38_interact.rel
                                          [ trigger_38_interact ]
C:/tmp/_gbsbuild/obj/trigger_39_interact.rel
                                          [ trigger_39_interact ]
C:/tmp/_gbsbuild/obj/trigger_4_interact.rel
                                          [ trigger_4_interact ]
C:/tmp/_gbsbuild/obj/trigger_40_interact.rel
                                          [ trigger_40_interact ]
C:/tmp/_gbsbuild/obj/trigger_42_interact.rel
                                          [ trigger_42_interact ]
C:/tmp/_gbsbuild/obj/trigger_43_interact.rel
                                          [ trigger_43_interact ]
C:/tmp/_gbsbuild/obj/trigger_44_interact.rel
                                          [ trigger_44_interact ]
C:/tmp/_gbsbuild/obj/trigger_45_interact.rel
                                          [ trigger_45_interact ]
C:/tmp/_gbsbuild/obj/trigger_46_interact.rel
                                          [ trigger_46_interact ]
C:/tmp/_gbsbuild/obj/trigger_47_interact.rel
                                          [ trigger_47_interact ]
C:/tmp/_gbsbuild/obj/trigger_48_interact.rel
                                          [ trigger_48_interact ]
C:/tmp/_gbsbuild/obj/trigger_49_interact.rel
                                          [ trigger_49_interact ]
C:/tmp/_gbsbuild/obj/trigger_5_interact.rel
                                          [ trigger_5_interact ]
C:/tmp/_gbsbuild/obj/trigger_50_interact.rel
                                          [ trigger_50_interact ]
C:/tmp/_gbsbuild/obj/trigger_51_interact.rel
                                          [ trigger_51_interact ]
C:/tmp/_gbsbuild/obj/trigger_52_interact.rel
                                          [ trigger_52_interact ]
C:/tmp/_gbsbuild/obj/trigger_53_interact.rel
                                          [ trigger_53_interact ]
C:/tmp/_gbsbuild/obj/trigger_54_interact.rel
                                          [ trigger_54_interact ]
C:/tmp/_gbsbuild/obj/trigger_55_interact.rel
                                          [ trigger_55_interact ]
C:/tmp/_gbsbuild/obj/trigger_56_interact.rel
                                          [ trigger_56_interact ]
C:/tmp/_gbsbuild/obj/trigger_57_interact.rel
                                          [ trigger_57_interact ]
C:/tmp/_gbsbuild/obj/trigger_58_interact.rel
                                          [ trigger_58_interact ]
C:/tmp/_gbsbuild/obj/trigger_59_interact.rel
                                          [ trigger_59_interact ]
C:/tmp/_gbsbuild/obj/trigger_6_interact.rel
                                          [ trigger_6_interact ]
C:/tmp/_gbsbuild/obj/trigger_60_interact.rel
                                          [ trigger_60_interact ]
C:/tmp/_gbsbuild/obj/trigger_61_interact.rel
                                          [ trigger_61_interact ]
C:/tmp/_gbsbuild/obj/trigger_62_interact.rel
                                          [ trigger_62_interact ]
C:/tmp/_gbsbuild/obj/trigger_63_interact.rel
                                          [ trigger_63_interact ]
C:/tmp/_gbsbuild/obj/trigger_64_interact.rel
                                          [ trigger_64_interact ]
C:/tmp/_gbsbuild/obj/trigger_65_interact.rel
                                          [ trigger_65_interact ]
C:/tmp/_gbsbuild/obj/trigger_66_interact.rel
                                          [ trigger_66_interact ]
C:/tmp/_gbsbuild/obj/trigger_67_interact.rel
                                          [ trigger_67_interact ]
C:/tmp/_gbsbuild/obj/trigger_68_interact.rel
                                          [ trigger_68_interact ]
C:/tmp/_gbsbuild/obj/trigger_69_interact.rel
                                          [ trigger_69_interact ]
C:/tmp/_gbsbuild/obj/trigger_7_interact.rel
                                          [ trigger_7_interact ]
C:/tmp/_gbsbuild/obj/trigger_70_interact.rel
                                          [ trigger_70_interact ]
C:/tmp/_gbsbuild/obj/trigger_71_interact.rel
                                          [ trigger_71_interact ]
C:/tmp/_gbsbuild/obj/trigger_72_interact.rel
                                          [ trigger_72_interact ]
C:/tmp/_gbsbuild/obj/trigger_73_interact.rel
                                          [ trigger_73_interact ]
C:/tmp/_gbsbuild/obj/trigger_74_interact.rel
                                          [ trigger_74_interact ]
C:/tmp/_gbsbuild/obj/trigger_75_interact.rel
                                          [ trigger_75_interact ]
C:/tmp/_gbsbuild/obj/trigger_76_interact.rel
                                          [ trigger_76_interact ]
C:/tmp/_gbsbuild/obj/trigger_77_interact.rel
                                          [ trigger_77_interact ]
C:/tmp/_gbsbuild/obj/trigger_78_interact.rel
                                          [ trigger_78_interact ]
C:/tmp/_gbsbuild/obj/trigger_79_interact.rel
                                          [ trigger_79_interact ]
C:/tmp/_gbsbuild/obj/trigger_8_interact.rel
                                          [ trigger_8_interact ]
C:/tmp/_gbsbuild/obj/trigger_80_interact.rel
                                          [ trigger_80_interact ]
C:/tmp/_gbsbuild/obj/trigger_81_interact.rel
                                          [ trigger_81_interact ]
C:/tmp/_gbsbuild/obj/trigger_9_interact.rel
                                          [ trigger_9_interact ]
C:/tmp/_gbsbuild/obj/main.rel             [ main ]
C:/tmp/_gbsbuild/obj/adventure.rel        [ adventure ]
C:/tmp/_gbsbuild/obj/logo.rel             [ logo ]
C:/tmp/_gbsbuild/obj/platform.rel         [ platform ]
C:/tmp/_gbsbuild/obj/pointnclick.rel      [ pointnclick ]
C:/tmp/_gbsbuild/obj/shmup.rel            [ shmup ]
C:/tmp/_gbsbuild/obj/states_ptrs.rel      [  ]
C:/tmp/_gbsbuild/obj/topdown.rel          [ topdown ]


Libraries Linked                          [ object file ]

C:\tmp/_gbstools/gbdk/lib/small/asxxxx/gb/gb.lib
                                          [ fill_rect_wi.o ]
C:\tmp/_gbstools/gbdk/lib/small/asxxxx/gbz80/gbz80.lib
                                          [ rand.o ]
lib/hUGEDriver.lib                        [ hUGEDriver.obj.o ]
C:\tmp/_gbstools/gbdk/lib/small/asxxxx/gb/gb.lib
                                          [ sfr.o ]
C:\tmp/_gbstools/gbdk/lib/small/asxxxx/gb/gb.lib
                                          [ get_data.o ]
C:\tmp/_gbstools/gbdk/lib/small/asxxxx/gb/gb.lib
                                          [ get_tile.o ]
C:\tmp/_gbstools/gbdk/lib/small/asxxxx/gb/gb.lib
                                          [ cgb_palettes.o ]
C:\tmp/_gbstools/gbdk/lib/small/asxxxx/gb/gb.lib
                                          [ metasprites_hide_spr.o ]
C:\tmp/_gbstools/gbdk/lib/small/asxxxx/gbz80/gbz80.lib
                                          [ mul.o ]
C:\tmp/_gbstools/gbdk/lib/small/asxxxx/gbz80/gbz80.lib
                                          [ abs.o ]
C:\tmp/_gbstools/gbdk/lib/small/asxxxx/gb/gb.lib
                                          [ set_wi_t.o ]
C:\tmp/_gbstools/gbdk/lib/small/asxxxx/gb/gb.lib
                                          [ set_data.o ]
C:\tmp/_gbstools/gbdk/lib/small/asxxxx/gbz80/gbz80.lib
                                          [ reverse.o ]
C:\tmp/_gbstools/gbdk/lib/small/asxxxx/gb/gb.lib
                                          [ far_ptr.o ]
C:\tmp/_gbstools/gbdk/lib/small/asxxxx/gb/gb.lib
                                          [ sgb.o ]
C:\tmp/_gbstools/gbdk/lib/small/asxxxx/gb/gb.lib
                                          [ lcd.o ]
C:\tmp/_gbstools/gbdk/lib/small/asxxxx/gb/gb.lib
                                          [ fill_rect.o ]
C:\tmp/_gbstools/gbdk/lib/small/asxxxx/gb/gb.lib
                                          [ pad_ex.o ]
C:\tmp/_gbstools/gbdk/lib/small/asxxxx/gb/gb.lib
                                          [ cpy_data.o ]
C:\tmp/_gbstools/gbdk/lib/small/asxxxx/gb/gb.lib
                                          [ fill_rect_bk.o ]
C:\tmp/_gbstools/gbdk/lib/small/asxxxx/gb/gb.lib
                                          [ metasprites.o ]
C:\tmp/_gbstools/gbdk/lib/small/asxxxx/gbz80/gbz80.lib
                                          [ __sdcc_call_hl.o ]
C:\tmp/_gbstools/gbdk/lib/small/asxxxx/gbz80/gbz80.lib
                                          [ _memcpy.o ]
C:\tmp/_gbstools/gbdk/lib/small/asxxxx/gbz80/gbz80.lib
                                          [ _memset.o ]
C:\tmp/_gbstools/gbdk/lib/small/asxxxx/gb/gb.lib
                                          [ set_xy_t.o ]
C:\tmp/_gbstools/gbdk/lib/small/asxxxx/gb/gb.lib
                                          [ cgb.o ]
C:\tmp/_gbstools/gbdk/lib/small/asxxxx/gbz80/gbz80.lib
                                          [ div.o ]
C:\tmp/_gbstools/gbdk/lib/small/asxxxx/gb/gb.lib
                                          [ set_bk_t.o ]

ASxxxx Linker V03.00 + NoICE + sdld,  page 109.

User Base Address Definitions

_DATA=0xC0A0
_CODE=0x0200
ASxxxx Linker V03.00 + NoICE + sdld,  page 110.

User Global Definitions

.STACK=0xDF00
_shadow_OAM=0xC000
.refresh_OAM=0xFF80
__start_save=28

